((dp0
S''
p1
I0
sVlimited
p2
I3634
sVsuicidal
p3
I1172
sVpardon
p4
I2374
sVsurrounding
p5
I3649
sVjeromy
p6
I4208
sVkhalid
p7
I1174
sVHW6
p8
I1961
sVlooped
p9
I3025
sVsleep
p10
I3635
sV6pm
p11
I2375
sVtodays
p12
I2373
sVsaved
p13
I1175
sVtomorrows
p14
I1770
sVincrease
p15
I1577
sVinstructor
p16
I4411
sVpointing
p17
I1771
sVgranting
p18
I2
sVparis
p19
I3638
sVRefund
p20
I3609
sVdisability
p21
I2378
sVinfection
p22
I4540
sVjames
p23
I4722
sVcontaining
p24
I3824
sVsupported
p25
I3485
sV2/21
p26
I2906
sVedward
p27
I1177
sVswap
p28
I2379
sVschedule.berkeley.edu
p29
I2435
sVteaching
p30
I2380
sVsorry
p31
I2381
sVboll
p32
I2652
sVworth
p33
I1178
sV@
p34
I3640
sVdigit
p35
I3
sVpoint
p36
I3220
sVrisk
p37
I3641
sVmisunderstanding
p38
I2383
sVshoot
p39
I3678
sVevery
p40
I3642
sVupdates
p41
I2384
sVkick
p42
I2312
sVaffect
p43
I2385
sVregrade
p44
I2386
sVbringing
p45
I4
sVreiterating
p46
I3644
sVvast
p47
I2387
sVlook
p48
I2388
sVtickets
p49
I1179
sVschool
p50
I3645
sVinternally
p51
I5
sVcalled
p52
I4477
sVINSTRUCTORS
p53
I2844
sVcmd
p54
I2478
sVwednesday
p55
I6
sVfrozen
p56
I4412
sVconvenience
p57
I2390
sVvector
p58
I2391
sVnotifying
p59
I1181
sVred
p60
I3442
sV294
p61
I1183
sV.pdf
p62
I1184
sVcommented
p63
I7
sV9pm
p64
I2394
sV10k
p65
I2395
sVbill
p66
I3237
sVspecially
p67
I8
sVnullspace
p68
I9
sVeagle
p69
I4011
sVphones
p70
I1185
sVpin
p71
I3619
sVSID
p72
I3029
sVdirect
p73
I3648
sVresubmitted
p74
I1186
sVsecond
p75
I10
sVattended
p76
I4012
sV3a
p77
I3368
sVchen
p78
I1188
sVimplemented
p79
I2398
sVmachines
p80
I1189
sVAvailable
p81
I1190
sVestablished
p82
I1191
sVerrors
p83
I11
sVpace
p84
I1969
sVreligious
p85
I1775
sV+
p86
I1193
sVboogie
p87
I12
sVkuo
p88
I3652
sV5b
p89
I3848
sVjerome
p90
I4213
sVabove
p91
I1194
sVconduct
p92
I3653
sVnew
p93
I2402
sVtips
p94
I147
sVofficially
p95
I1196
sVtold
p96
I1197
sVspecialist
p97
I13
sVee49
p98
I14
sVhero
p99
I15
sVwhose
p100
I2376
sVjoin
p101
I3679
sVnever
p102
I2405
sVUploading
p103
I16
sVhere
p104
I17
sVreported
p105
I18
sV109
p106
I2406
sVcode/pdf
p107
I2407
sVpursuit
p108
I1198
sV=
p109
I4619
sVForgotten
p110
I19
sVhers
p111
I20
sV103
p112
I2409
sV100
p113
I2410
sV101
p114
I2411
sVplaceholder
p115
I1199
sVenrol
p116
I3657
sV104
p117
I2412
sVcalculate
p118
I2377
sVluther
p119
I2413
sVkids
p120
I21
sVcovers
p121
I2670
sVExtra
p122
I2414
sVtalk..
p123
I22
sVitems
p124
I1200
sVstudy
p125
I1201
sVeconomics
p126
I2417
sVbarak
p127
I1584
sVreports
p128
I23
sVguide
p129
I1974
sVvogt
p130
I1202
sVcredit
p131
I2419
sVajay
p132
I2809
sVloop
p133
I2420
sVsmoke
p134
I1203
sVstressed
p135
I1204
sVcalculators
p136
I1205
sVcalifornia
p137
I2810
sVAlternative
p138
I24
sVspotty
p139
I25
sVchanges
p140
I3662
sVpunishment
p141
I3663
sVmissing
p142
I2250
sVSubmitting
p143
I2424
sV*will
p144
I1206
sVexplained
p145
I26
sVjulia
p146
I3665
sVreplace
p147
I27
sVpatience
p148
I687
sVmoral
p149
I2425
sVguests
p150
I1856
sVSick
p151
I3668
sVatrium
p152
I1209
sVglance
p153
I1210
sVtotal
p154
I1211
sVhomeopathic
p155
I2428
sVunit
p156
I28
sVsarah
p157
I1212
sVcheating
p158
I29
sVspoke
p159
I30
sVwould
p160
I3669
sVdouble
p161
I4339
sVhospital
p162
I3670
sVachieve
p163
I2229
sVnegative
p164
I1213
sVscreenshot
p165
I4113
sVhereprospective
p166
I4216
sVcall
p167
I2429
sVtherefore
p168
I31
sVdns
p169
I32
sVrecommend
p170
I2430
sVadministering
p171
I1215
sVtype
p172
I2432
sVuntil
p173
I33
sV1000
p174
I4022
sVzeroes
p175
I1216
sVpreparation
p176
I2510
sVpaperwork
p177
I34
sVposting
p178
I2434
sV9.
p179
I35
sVsuccessful
p180
I36
sVhawaii
p181
I3938
sVunder
p182
I3639
sVhaha
p183
I1217
sVaward
p184
I1218
sVhurt
p185
I37
sVAssignments
p186
I2436
sVlu
p187
I3422
sVexcellent
p188
I3676
sV2/13/2018
p189
I4330
sV90
p190
I38
sVhold
p191
I39
sVstriving
p192
I1220
sVcircumstances
p193
I41
sVme
p194
I2700
sVword
p195
I1221
sVroom
p196
I2437
sVerr
p197
I1222
sVml
p198
I3681
sVsetup
p199
I2438
sVwork
p200
I1223
sVworn
p201
I1224
sVmakeups
p202
I3915
sVmt
p203
I3682
sVmw
p204
I3683
sVrohan
p205
I4419
sVsid***lydia
p206
I43
sVtransparency
p207
I1225
sVconcepts
p208
I44
sVexceptions
p209
I2439
sVsalvage
p210
I2730
sVexample
p211
I45
sVsaturday
p212
I3718
sVdefer
p213
I2440
sVimpose
p214
I4016
sVworkstations
p215
I1226
sVwang
p216
I46
sVindicated
p217
I1227
sVgive
p218
I2441
sVprogramming
p219
I2442
sVhousehold
p220
I47
sVmisspoke
p221
I3821
sVindia
p222
I1229
sVupdated
p223
I2382
sVindicates
p224
I1230
sVto/confirm
p225
I1231
sVreviewing
p226
I49
sVwant
p227
I50
sV25166810
p228
I2444
sVscheduling
p229
I3688
sVvalidated
p230
I1232
sVabsolute
p231
I51
sVceremony
p232
I3691
sVend
p233
I3692
sVrecovery
p234
I1233
sVeng
p235
I3693
sVprovide
p236
I1234
sVverify
p237
I1235
sVtravel
p238
I52
sVsitting
p239
I2164
sVfeature
p240
I53
sVmachine
p241
I54
sVhow
p242
I55
sVhot
p243
I56
sV999
p244
I4639
sVinterview
p245
I1236
sVplace
p246
I4019
sVfaulty
p247
I2447
sVSelf-grades
p248
I57
sVA
p249
I58
sVlam
p250
I1237
sVfever
p251
I1238
sVlai
p252
I1239
sVreplacing
p253
I2449
sVafter
p254
I1240
sVconfirmed
p255
I1370
sVlab
p256
I1241
sVstefano
p257
I1242
sVthankyou
p258
I2450
sVwrong
p259
I59
sVpushing
p260
I4524
sV20disposition
p261
I3695
sVnate
p262
I4414
sVlau
p263
I1243
sVmeaningful
p264
I1244
sVtypes
p265
I60
sVpurchase
p266
I2452
sVguerilla
p267
I2453
sVattempt
p268
I2454
sVthird
p269
I2455
sVInstr
p270
I2456
sVappreciate
p271
I1245
sVlost
p272
I2318
sVthink
p273
I2817
sVperform
p274
I1371
sVgreen
p275
I1246
sVultimate
p276
I2856
sVkeeps
p277
I62
sVfirst
p278
I2819
sVorder
p279
I1247
sV//drive.google.com/file/d/0bwwcaljwya0sqve4dglpckjlbda/view
p280
I2457
sV5:45pm
p281
I2458
sVprioritizing
p282
I3699
sVRequirements
p283
I63
sVfeedback
p284
I64
sVoffice
p285
I1248
sVwelcomed
p286
I65
sVconsent
p287
I1249
sVover
p288
I3700
sVfall
p289
I3034
sVchoose
p290
I4572
sV12.2
p291
I1250
sVmabel
p292
I66
sV6.0
p293
I1251
sVresponsive
p294
I2459
sVmisconduct
p295
I1252
sVjunior
p296
I4473
sVticket
p297
I4226
sVbefore
p298
I2461
sVscoring
p299
I2462
sVsciences
p300
I4047
sVdifference
p301
I3035
sVsubmitted
p302
I3784
sVfit
p303
I67
sVrescheduled
p304
I2463
sVsomewhere
p305
I1253
sVg-j
p306
I4178
sVfix
p307
I68
sVrecreational
p308
I1254
sV,
p309
I2465
sVwriting
p310
I3703
sVbetter
p311
I2466
sVhm
p312
I2351
sVIncomplete
p313
I1783
sVwellness
p314
I2240
sVPath
p315
I2467
sVhidden
p316
I69
sVloading
p317
I4440
sVeasier
p318
I70
sVconfidently
p319
I2469
sV408
p320
I2928
sVthen
p321
I1255
sVthem
p322
I1256
sVaffected
p323
I1257
sVwoken
p324
I1258
sVcombination
p325
I2470
sVprevented
p326
I3706
sVsimilar
p327
I2044
sVasdgasd
p328
I2471
sVsafe
p329
I1259
sVsleepiness
p330
I1260
sV5-9
p331
I1910
sVshivam
p332
I71
sV9
p333
I4420
sVroommate
p334
I1262
sVeffects
p335
I72
sVthey
p336
I1263
sVcloser
p337
I4654
sVkaushal
p338
I73
sVyourself
p339
I1595
sVlenient
p340
I3248
sVbank
p341
I1264
sV137a
p342
I3708
sV5-8.
p343
I4336
sVlecture/discussion
p344
I1265
sValex
p345
I3709
sVclobbering
p346
I74
sVStart
p347
I4024
sVregularly
p348
I3491
sVedge
p349
I4432
sVreasonably
p350
I1266
sVl
p351
I1267
sV--
p352
I3828
sVfilling
p353
I3711
sVconflict
p354
I2473
sVreasonable
p355
I1268
sVeach
p356
I3712
sVwent
p357
I2474
sVinterfering
p358
I75
sVside
p359
I2476
sVluck
p360
I526
sVAdding
p361
I3713
sVcs70
p362
I1393
sVstressful
p363
I3944
sVfinancial
p364
I76
sVcovered
p365
I4573
sVindependent
p366
I1376
sVdiana
p367
I3715
sVseries
p368
I77
sVparkison
p369
I3716
sVwyllie
p370
I79
sVprinciples
p371
I2480
sVupload
p372
I1180
sVarrives
p373
I4423
sVee16ab
p374
I3717
sVdirectory
p375
I4207
sVforgot
p376
I2482
sVtemporary
p377
I2483
sVsounds
p378
I2821
sVRoom
p379
I3831
sVreminding
p380
I3037
sVreused
p381
I3719
sVDominant
p382
I80
sVdriving
p383
I3720
sVaparna
p384
I2484
sVafraid
p385
I4617
sVtried
p386
I1822
sVinclude
p387
I4500
sVdsp
p388
I81
sVfellows
p389
I1269
sVcontent
p390
I2485
sVfellowship
p391
I1270
sVencourage
p392
I83
sVdaniel
p393
I1271
sVremorse
p394
I1272
sVdischarged
p395
I2822
sVreader
p396
I2486
sVmedicine
p397
I1273
sVberkeleywaller
p398
I2392
sVxu
p399
I1601
sVresistor
p400
I3722
sVturning
p401
I2488
sVlinear
p402
I2489
sVExtension
p403
I85
sVhw2*
p404
I2227
sVutilize
p405
I1818
sVgiven
p406
I4026
sVfree
p407
I3724
sVsolution
p408
I2389
sVadmits
p409
I1274
sVappointments
p410
I1275
sVtruthfully
p411
I1602
sVcheers
p412
I494
sVstruggle
p413
I606
sVconcluded
p414
I4511
sVchecked
p415
I1603
sVreturning
p416
I3032
sVwanted
p417
I3725
sV9-13
p418
I90
sVSketch
p419
I1276
sVok
p420
I4153
sVbates
p421
I91
sVworkaround
p422
I2824
sVrecovering
p423
I1277
sVcreated
p424
I1278
sVstarts
p425
I2491
sVprivacy
p426
I2178
sVmessages
p427
I2492
sV001
p428
I1988
sVheading
p429
I92
sVfilter
p430
I3727
sV+2
p431
I1279
sV+1
p432
I1280
sVish
p433
I640
sVspeedy
p434
I93
sVisn
p435
I2493
sVsignature
p436
I2494
sVreupload
p437
I3728
sVmoving
p438
I4426
sVloud
p439
I2495
sVorganize
p440
I1281
sVfeatures
p441
I2496
sVgrade
p442
I2497
sVNotification
p443
I3732
sVrani
p444
I3109
sVDue
p445
I94
sVrank
p446
I3734
sVhearing
p447
I3735
sVchannels
p448
I95
sV//studentcentral..edu/open-case
p449
I661
sVanother
p450
I1282
sVwasn
p451
I96
sVhear
p452
I3901
sV3032671475
p453
I1283
sVelectronic
p454
I1284
sV170
p455
I97
sV203
p456
I2858
sVxia
p457
I98
sVbasketball
p458
I99
sVservice
p459
I100
sVattach
p460
I2179
sVconcussion
p461
I2500
sVapproximately
p462
I1286
sVneeded
p463
I101
sVconfirming
p464
I3738
sVNotebook
p465
I1606
sVlisted
p466
I102
sVgradescope
p467
I2747
sVtom
p468
I3740
sVinconvenient
p469
I3163
sVjohn
p470
I1287
sVdiscussion
p471
I1526
sVmiscommunicating
p472
I2502
sV650
p473
I4604
sVrest
p474
I3198
sVhappily
p475
I1288
sVted
p476
I4233
sVgym
p477
I2503
sV2am
p478
I2504
sValbert
p479
I1289
sVtook
p480
I3742
sVpromise
p481
I4740
sVsomewhat
p482
I2505
sVassistants
p483
I2235
sVsymptom
p484
I2506
sVgovind
p485
I3836
sVbegins
p486
I2507
sVmercy
p487
I1290
sVCode
p488
I103
sVshowed
p489
I104
sV7-9pm
p490
I2396
sVprograms
p491
I2609
sVenabled
p492
I2509
sV*15**0
p493
I1187
sVseminars
p494
I744
sVmatter
p495
I2511
sVtimeslot
p496
I2512
sVclasses
p497
I3745
sVguilt
p498
I1291
sVspeaking
p499
I2831
sVhistorical
p500
I1292
sVprioritize
p501
I3837
sVdesign
p502
I4235
sVfeeling
p503
I106
sVsolely
p504
I1293
sVminus
p505
I1294
sVbridge
p506
I3746
sVwillingness
p507
I107
sVran
p508
I3747
sV*correct
p509
I108
sVmine
p510
I2514
sVcontroversy.
p511
I109
sVanybody
p512
I4430
sV7th
p513
I2515
sVmanner
p514
I1296
sVhaas
p515
I4232
sVseen
p516
I2516
sVseem
p517
I2517
sVsounding
p518
I782
sVseek
p519
I2519
sVtells
p520
I2520
sVrelatively
p521
I3751
sVtriangle
p522
I4359
sVgenuine
p523
I1297
sVconvenient
p524
I1298
sVlatter
p525
I1299
sVresponsible
p526
I110
sV-
p527
I3752
sVthorough
p528
I3753
sVsvetlitski
p529
I1611
sVrecommended
p530
I111
sVcausing
p531
I112
sVdoors
p532
I113
sVgets
p533
I4699
sVvirus-free
p534
I1301
sVdownstairs
p535
I3002
sVcompleted
p536
I1302
sVeven
p537
I2399
sVRegrades
p538
I114
sVphiladelphia
p539
I3452
sVwrists
p540
I2524
sVshall
p541
I115
sVthrilled
p542
I116
sVconsistency
p543
I1992
sVquit
p544
I2271
sVlooming
p545
I117
sVbraun
p546
I4032
sVextending
p547
I1303
sVMakeUps
p548
I118
sVcummings
p549
I119
sVletter
p550
I120
sVphase
p551
I1304
sVassessed
p552
I1305
sVpanic
p553
I4563
sVdecline
p554
I4398
sVgrave
p555
I1306
sVDropped
p556
I2547
sVsp18
p557
I122
sVjupyter
p558
I123
sVobservation
p559
I2528
sVhanna
p560
I1307
sVemailing
p561
I124
sVdoc
p562
I2529
sVcalculated
p563
I1308
sVsp16
p564
I127
sVspend
p565
I3260
sVpoints
p566
I877
sVtech
p567
I129
sVjoon
p568
I3840
sValbert.han
p569
I3261
sVresponded
p570
I1309
sVincomplete
p571
I130
sVreserve
p572
I1310
sVd.
p573
I1311
sVincorporate
p574
I131
sVpopa
p575
I3760
sVd-
p576
I1312
sVd+
p577
I1313
sVkeyvan
p578
I2533
sVdeparting
p579
I132
sVmeetings
p580
I133
sVadvisors
p581
I134
sVturnarounds
p582
I4422
sVfleming
p583
I1314
sVundue
p584
I135
sVprescription
p585
I4387
sVreschedule
p586
I136
sVever
p587
I2404
sVbaid
p588
I3762
sVsolutions
p589
I3763
sVrespectfully
p590
I1315
sVparticipate
p591
I913
sVmidterm1
p592
I138
sVmidterm2
p593
I139
sVenjoyed
p594
I1316
sVgraded
p595
I3841
sVjudges
p596
I2536
sVbusy
p597
I140
sVclicked
p598
I141
sVCrse
p599
I142
sVimplementation
p600
I1317
sVmenu
p601
I143
sVexplain
p602
I2537
sVsentence
p603
I2618
sVTimesheet
p604
I3768
sVappreciated
p605
I1613
sVprintouts
p606
I3769
sVabout
p607
I3596
sVmy
p608
I3685
sVfolks
p609
I2538
sVannounce
p610
I3771
sVadequate
p611
I1319
sVd\u2013
p612
I145
sVWeek
p613
I2995
sValexander
p614
I1929
sVdo
p615
I1320
sVcheng
p616
I2401
sVetc.
p617
I4476
sVde
p618
I1321
sVstop
p619
I2541
sVpreferred
p620
I1322
sVcoast
p621
I2542
sVvaleria
p622
I4704
sVwedding
p623
I3414
sVreport
p624
I3776
sVnasty
p625
I1323
sVmidterms
p626
I146
sVnet
p627
I2403
sV6:05pm
p628
I148
sV820-8699
p629
I3777
sVhall
p630
I4716
sVbat
p631
I2543
sVgoodbyes
p632
I3778
sVqazi
p633
I1325
sVrowing
p634
I3779
sVjoohyung
p635
I2841
sVpublic
p636
I3048
sVtwice
p637
I3780
sVReadjustment
p638
I149
sVtroop
p639
I994
sV3032758263
p640
I3781
sVrelease
p641
I150
sVexplanations
p642
I1326
sVflagged
p643
I2548
sV_________________________________________________
p644
I2549
sVrespond
p645
I151
sVethical
p646
I1003
sVblew
p647
I152
sVerroneous
p648
I1327
sVmustafa
p649
I1328
sVdisaster
p650
I154
sVfair
p651
I155
sVimplies
p652
I3340
sVw/
p653
I1329
sVw.
p654
I1330
sVInternet
p655
I1996
sVemergent
p656
I2553
sVcheekbone
p657
I4611
sVobserved
p658
I1331
sVdepends
p659
I1332
sVdecided
p660
I2554
sVresult
p661
I157
sVdiscussions
p662
I1333
sVtechnicals
p663
I159
sVyes
p664
I2623
sVbest
p665
I160
sVsubject
p666
I2555
sV11:30am
p667
I1334
sVsaid
p668
I2556
sVcapacity
p669
I3785
sVonto
p670
I3729
sV04
p671
I2557
sVpasted
p672
I1335
sVaway
p673
I1336
sVinterviewing
p674
I3786
sVyet
p675
I2624
sVgrandmother
p676
I3787
sVunable
p677
I1337
sVirl
p678
I163
sVtimesheets
p679
I164
sVhopefully
p680
I3788
sVsorts
p681
I2559
sVMidterms
p682
I1338
sV0.
p683
I901
sVritchy
p684
I1339
sVpreserve
p685
I165
sVletting
p686
I3267
sVwe
p687
I1340
sVterms
p688
I1341
sVextend
p689
I167
sVnature
p690
I168
sVwo
p691
I1342
sVconfusion
p692
I3794
sVwl
p693
I1343
sVkunal
p694
I170
sVhowever
p695
I3795
sV11:59pm
p696
I2286
sVcut
p697
I3268
sVexcusable
p698
I3207
sVextent
p699
I171
sVflashes
p700
I3463
sVworksheets
p701
I2562
sVgenerates
p702
I4486
sV42.5
p703
I1346
sVdrowsy
p704
I3797
sVimprove
p705
I3798
sVpity
p706
I172
sVreceived
p707
I1347
sVessentially
p708
I1348
sVplanner
p709
I1076
sV0v
p710
I2564
sVSelf-grade
p711
I1349
sVbeck
p712
I3655
sVfault
p713
I3800
sVill
p714
I1350
sVconclusions
p715
I799
sVagainst
p716
I2565
sVamazing
p717
I2445
sV0b
p718
I2566
sVemerald
p719
I4580
sVmerging
p720
I3802
sVplanned
p721
I175
sVneeding
p722
I4268
sVrequests
p723
I1351
sVargue
p724
I177
sVdisappears
p725
I1352
sVasked
p726
I178
sVjack
p727
I3643
sV*1.
p728
I1353
sVsuggest
p729
I3825
sVpresumably
p730
I2567
sVtough
p731
I1354
sVprepared
p732
I3337
sVmiscommunication
p733
I179
sVcharacter
p734
I2626
sVirresponsible
p735
I180
sVexcess
p736
I1793
sV2nd
p737
I181
sVofferings
p738
I2568
sVactive
p739
I2408
sVrealised
p740
I4710
sVwritten
p741
I4067
sVAttachment
p742
I2569
sVpath
p743
I3656
sVtrust
p744
I3806
sVspeak
p745
I1356
sVconference
p746
I3808
sVfra
p747
I182
sVabdominal
p748
I2570
sVInformation***
p749
I1615
sVasks
p750
I2571
sVbasis
p751
I2572
sVequations
p752
I4247
sVfri
p753
I183
sValcus
p754
I2573
sVthree
p755
I2574
sVbeen
p756
I3809
sV.
p757
I184
sVrivera
p758
I3362
sVconfident
p759
I3811
sVmuch
p760
I185
sVxuanye
p761
I1357
sVinterest
p762
I2576
sVprivilege
p763
I186
sVentered
p764
I2577
sVsignature.ee16a
p765
I1358
sVtopics
p766
I2847
sVduties
p767
I1359
sVwebsite
p768
I2579
sVlife
p769
I187
sVvikram
p770
I188
sVhospitalized
p771
I189
sVconcerning
p772
I1360
sVuncommon
p773
I3813
sVdave
p774
I190
sVYang
p775
I2581
sVpersonally
p776
I2582
sVCS
p777
I2583
sV165
p778
I2584
sVworked
p779
I191
sVcomfortable
p780
I3464
sV162
p781
I2585
sVapplied
p782
I1361
sVneel
p783
I2197
sVexception
p784
I2586
sVeast
p785
I210
sVforum
p786
I3658
sVtang
p787
I2587
sV*class
p788
I211
sVCa
p789
I2588
sVvoltage
p790
I3562
sValerted
p791
I4614
sVexcited
p792
I3273
sVnear
p793
I2589
sVceilings
p794
I1195
sVleaves
p795
I3660
sVapplies
p796
I1364
sVstopping
p797
I3816
sVaid
p798
I1365
sVcracked
p799
I3818
sVgave
p800
I3819
sVCorrection
p801
I2416
sVeecs.berkeley.edu
p802
I193
sVmistake
p803
I1366
sV*the
p804
I1367
sVhave
p805
I3467
sV...
p806
I2002
sVthursdays
p807
I1368
sVis
p808
I2591
sVkohn
p809
I194
sVit
p810
I2592
sVii
p811
I2593
sVskipping
p812
I1369
sVim
p813
I2594
sVin
p814
I2595
sV\u2019
p815
I3822
sVie
p816
I2596
sVid
p817
I2597
sVdisappear
p818
I2598
sVif
p819
I2599
sVagarwal
p820
I3823
sVhong
p821
I195
sVrecover
p822
I1617
sVseverity
p823
I196
sVPython
p824
I197
sVthings
p825
I198
sVmake
p826
I2600
sVremissions
p827
I3375
sVjerry
p828
I1372
sVany
p829
I4046
sVbacked
p830
I3134
sVcomplex
p831
I3826
sVpotentially
p832
I2601
sV3:30pm
p833
I1374
sVunfortunate
p834
I2602
sVincorrectly
p835
I1375
sVsuccess
p836
I3581
sVseveral
p837
I3829
sVshowing
p838
I2004
sVadministrative
p839
I3272
sVclicking
p840
I3967
sVfairly
p841
I200
sVadvocate
p842
I4442
sVcindy
p843
I2421
sVresourcesundocumented
p844
I3832
sVacting
p845
I4214
sVpurposely
p846
I3895
sVEnrollment
p847
I1377
sVpick
p848
I627
sVqualifications
p849
I201
sVdemo/test
p850
I1378
sVhand
p851
I1379
sVcathy
p852
I1798
sVfridays
p853
I3833
sVportal
p854
I3834
sVscale
p855
I3291
sVkim
p856
I2604
sVi.
p857
I2605
sVon
p858
I4152
sVopportunity
p859
I2606
sVthoughts
p860
I2607
sVprescribed
p861
I1380
sVsuitable
p862
I2423
sVkept
p863
I1381
sVpiazza
p864
I1382
sVscenario
p865
I1383
sVthx
p866
I1384
sVperformance
p867
I2852
sVkyla
p868
I1385
sVfailing
p869
I2610
sVuploading
p870
I3838
sVkyle
p871
I1386
sVacademic
p872
I202
sVmaterials
p873
I1300
sVmother
p874
I3839
sVprograml
p875
I2611
sVthe
p876
I1388
sV800
p877
I2612
sVcs186
p878
I2613
sVyours
p879
I2614
sVkarina
p880
I3759
sVleft
p881
I2615
sVandere
p882
I2616
sVbellow
p883
I203
sVThank
p884
I204
sVjust
p885
I2617
sVyen
p886
I1318
sVphoto
p887
I1389
sV||
p888
I2619
sVpresume
p889
I4720
sVunfair
p890
I2620
sVmid
p891
I3472
sVassigned
p892
I2621
sVgrades
p893
I3843
sVgrader
p894
I3844
sVthanks
p895
I1390
sVlabs/hw
p896
I3871
sVyep
p897
I2622
sVsmoothies
p898
I1391
sVbcourses
p899
I2338
sVelectronically
p900
I1392
sVprevious
p901
I205
sVadding
p902
I1394
sVglitches
p903
I4139
sVunique
p904
I215
sVfeb.1
p905
I206
sVcandidate
p906
I2625
sVOffer
p907
I207
sV1b
p908
I2828
sVhad
p909
I208
sVmr.
p910
I1620
sV3032673503
p911
I3845
sValotted
p912
I3736
sVmainly
p913
I4638
sVn
p914
I3815
sVboard
p915
I1395
sVeasy
p916
I209
sVian
p917
I4027
sV37207
p918
I3846
sVhas
p919
I1362
sVhat
p920
I1363
sVCheng_Forget
p921
I2628
sV37202
p922
I1405
sVshoulder
p923
I2632
sVgraders
p924
I1207
sVunenrolled
p925
I1397
sVJames
p926
I3849
sVSetup
p927
I212
sVpossible
p928
I213
sVcaps
p929
I1398
sVpossibly
p930
I214
sVwhichever
p931
I2629
sV3pm
p932
I2630
sVbackground
p933
I2631
sVwanting
p934
I434
sVunlikely
p935
I3466
sVapart
p936
I3852
sVhighly
p937
I1208
sVdisadvantage
p938
I1399
sVdesire
p939
I216
sVairbears
p940
I2633
sVeecs101
p941
I1400
sV7pm
p942
I4543
sVLinks
p943
I4444
sV150+
p944
I4601
sV'21
p945
I2634
sV54
p946
I3853
sVperforming
p947
I2635
sVmanual
p948
I2636
sValice
p949
I217
sV53
p950
I3856
sVtheyre
p951
I1401
sVspecific
p952
I3857
sVremind
p953
I218
sVfestivities
p954
I219
sV5.
p955
I3859
sVsteps
p956
I220
sVchanged
p957
I3661
sVspreadsheet
p958
I1537
sVre-uploaded
p959
I221
sVsecurity
p960
I1403
sVwhomever
p961
I3861
sVmeche
p962
I2426
sVmargaret
p963
I4767
sVright
p964
I222
sVold
p965
I223
sVdeal
p966
I2638
sVpeople
p967
I224
sVunderstand
p968
I3232
sVorlando
p969
I3854
sVcreed
p970
I225
sVsuccessfully
p971
I3862
sVsomehow
p972
I2639
sVdead
p973
I2640
sVunnecessary
p974
I2637
sVintern
p975
I2641
sVsure
p976
I4050
sVhassle
p977
I1404
sVideal
p978
I4048
sVdear
p979
I2642
sVexcusals
p980
I436
sVextended
p981
I2945
sVmuskaan
p982
I2644
sVcontaminating
p983
I1406
sVconfusing
p984
I1407
sVseparately
p985
I4445
sV35914
p986
I226
sVrecently
p987
I4381
sVfor
p988
I227
sVbottom
p989
I228
sV3:30-5
p990
I4312
sVnotification
p991
I2648
sVnormal
p992
I2649
sVGrades
p993
I3858
sV/
p994
I1409
sVtau
p995
I4547
sVtrack
p996
I2861
sVindividuals
p997
I816
sVfast
p998
I4468
sV*we
p999
I230
sVparticipation
p1000
I1412
sVcid=15
p1001
I3860
sVAttach
p1002
I2923
sVcore
p1003
I3870
sVSchool
p1004
I1413
sVknew
p1005
I2651
sVrepository
p1006
I1414
sVdeleted
p1007
I3872
sVnight
p1008
I1402
sVarchived
p1009
I611
sVdecisions
p1010
I4212
sVdisappeared
p1011
I3874
sVinterdisciplinary
p1012
I3705
sVankit
p1013
I231
sVhsu
p1014
I3875
sVlosing
p1015
I232
sVeye
p1016
I3057
sVpost
p1017
I1415
sVGrad
p1018
I1416
sVcory
p1019
I3877
sVFirst
p1020
I233
sV*if
p1021
I1417
sVsfo
p1022
I3477
sV*in
p1023
I1418
sVundocumented
p1024
I3880
sVdinner
p1025
I3881
sVmisleading
p1026
I3882
sVensure
p1027
I3883
sVafternoon
p1028
I2654
sVlogistical
p1029
I3884
sV\u200c
p1030
I1837
sVslightly
p1031
I234
sVdoctor
p1032
I2938
sVautomatically
p1033
I2656
sVmatch
p1034
I3569
sVtruncating
p1035
I4650
sVconsiderations
p1036
I1419
sVUse
p1037
I235
sVFee
p1038
I236
sVvaidya
p1039
I3054
sVMissed
p1040
I237
sVlab/discussion
p1041
I238
sVwasting
p1042
I1420
sVinfraction
p1043
I239
sVmarshall
p1044
I240
sVvisible
p1045
I3667
sVintellectual
p1046
I2657
sVson
p1047
I241
sVtejas
p1048
I1554
sVundermining
p1049
I242
sVjoey
p1050
I3358
sVhospice
p1051
I243
sVoften
p1052
I3284
sVwan
p1053
I1422
sVrely
p1054
I3887
sVcleared
p1055
I4056
sVExam
p1056
I3888
sV3a:1a
p1057
I3889
sVmt2
p1058
I1423
sVexpired
p1059
I2212
sVsupport
p1060
I245
sVmt1
p1061
I1425
sVknowing
p1062
I4646
sVtransform
p1063
I3890
sVHand
p1064
I246
sVstuck
p1065
I3892
sVaccordingly
p1066
I1426
sVjoseph
p1067
I247
sVeditor
p1068
I2661
sVway
p1069
I1428
sVobliged
p1070
I3286
sVresulted
p1071
I249
sVjang
p1072
I250
sV*university
p1073
I2523
sVwas
p1074
I1429
sVacross
p1075
I2896
sVhappy
p1076
I251
sVlowest
p1077
I1430
sVhead
p1078
I3896
sVcreation
p1079
I2014
sVmeches
p1080
I1431
sVform
p1081
I1618
sVoffer
p1082
I252
sVADMIN
p1083
I253
sVwww.avg.com
p1084
I254
sVCompleting
p1085
I255
sVactions
p1086
I4128
sV218.
p1087
I256
sVenrolling
p1088
I3863
sVwireless
p1089
I3899
sVnotifications
p1090
I257
sVpagerank
p1091
I258
sVunderstandable
p1092
I259
sVjustify
p1093
I4124
sVpatient
p1094
I3297
sVjennifer
p1095
I3864
sVtrue
p1096
I1434
sVlscs
p1097
I4058
sVcaptures
p1098
I4125
sVabsent
p1099
I1435
sVcongratulations
p1100
I260
sVresponding
p1101
I1436
sVportions
p1102
I3903
sVwithdrew
p1103
I3600
sVurgent
p1104
I2665
sVvien-an
p1105
I2666
sVinside
p1106
I261
sVmorning
p1107
I2879
sVattached
p1108
I2667
sVmaximum
p1109
I1437
sVdevices
p1110
I262
sVtell
p1111
I2433
sVscience*
p1112
I4059
sVcomplications
p1113
I264
sVminor
p1114
I4257
sVsubmitting
p1115
I3904
sVsoldering
p1116
I265
sVterminally
p1117
I1807
sVadvise
p1118
I4421
sVoriginating
p1119
I2669
sV150
p1120
I266
sVmedication
p1121
I1438
sVop-amp
p1122
I4448
sVewan
p1123
I4680
sVitem
p1124
I2706
sVtesla
p1125
I1439
sVrequest
p1126
I3480
sVtournament
p1127
I267
sVtextbook
p1128
I268
sVevidence
p1129
I1440
sV''
p1130
I269
sVfloating
p1131
I1676
sVshamsai
p1132
I270
sVdistributions
p1133
I1441
sVarchive
p1134
I1442
sVphysical
p1135
I1443
sVmarking
p1136
I2672
sVfloor
p1137
I271
sVzhong
p1138
I2673
sVnb
p1139
I3908
sVexcel
p1140
I1694
sVPossible
p1141
I272
sVreality
p1142
I1444
sVtil
p1143
I3910
sVfaux
p1144
I4615
sVinterested
p1145
I1445
sVrole
p1146
I273
sVbrent
p1147
I3289
sV*option
p1148
I2675
sVdigital
p1149
I2676
sVtest
p1150
I1446
sVapproximated
p1151
I4004
sVtransgender
p1152
I274
sVmisinterpreted
p1153
I2677
sVrails
p1154
I4329
sVnode
p1155
I3912
sVLatex
p1156
I1447
sVll
p1157
I3420
sV's
p1158
I275
sV*keyvan
p1159
I3290
sV20form
p1160
I3914
sVwelcome
p1161
I1448
sVSubmitted
p1162
I3607
sVoutreach
p1163
I1449
sVBootcamp
p1164
I3632
sVconcurrent
p1165
I1450
sV'd
p1166
I276
sVrising
p1167
I4162
sVscores
p1168
I1452
sVrolling
p1169
I277
sVdescribing
p1170
I2021
sV'm
p1171
I278
sVaware
p1172
I1219
sVweekend
p1173
I2679
sVout-of-office
p1174
I4061
sVdied
p1175
I2680
sVpreponed
p1176
I280
sVapology
p1177
I1753
sVphone
p1178
I3675
sVassume
p1179
I2683
sVtonight*
p1180
I1408
sVmodules
p1181
I1454
sVtogether
p1182
I1455
sVlated
p1183
I4062
sVwifi/technical
p1184
I2685
sVreception
p1185
I1456
sVtime
p1186
I281
sVasli
p1187
I282
sVConduct
p1188
I2713
sVbasically
p1189
I4259
sVevelyn
p1190
I2285
sVconcept
p1191
I1458
sVmanaged
p1192
I2686
sVanant
p1193
I1459
sVchain
p1194
I283
sVwhoever
p1195
I284
sVskip
p1196
I2687
sVvarying
p1197
I3919
sValternatives
p1198
I3920
sVeldest
p1199
I2688
sVHw
p1200
I3866
sVlaura
p1201
I2689
sVmanager
p1202
I2690
sVresubmit
p1203
I3489
sVanand
p1204
I1461
sVgrateful
p1205
I1462
sVdalton
p1206
I1463
sVchair
p1207
I285
sVConflict
p1208
I3924
sVrow
p1209
I3925
sVcertainly
p1210
I1464
sVanticipation
p1211
I2692
sVdepend
p1212
I2693
sVclarification
p1213
I3926
sVeverything
p1214
I3867
sV95
p1215
I40
sVwarning
p1216
I4480
sVmarko
p1217
I2694
sVfather
p1218
I2695
sVBoll
p1219
I1465
sV818
p1220
I286
sVanswered
p1221
I1802
sVfinally
p1222
I2697
sVasking
p1223
I1410
sVmarks
p1224
I2698
sVgopal
p1225
I3930
sVsuffered
p1226
I2699
sVmust
p1227
I3677
sVELENG
p1228
I1467
sVulna
p1229
I3931
sVdivision
p1230
I1468
sVdownloading
p1231
I287
sValready
p1232
I3730
sVadvantage
p1233
I3932
sVzhang
p1234
I1469
sVhannah
p1235
I1470
sVberkeley.edu
p1236
I4278
sVibrahim
p1237
I3933
sVnone
p1238
I3064
sVseemingly
p1239
I1472
sVchoice
p1240
I288
sVemergencies
p1241
I1473
sV5/11
p1242
I3934
sVstays
p1243
I289
sVqingen
p1244
I1474
sVlocked
p1245
I42
sVtrouble
p1246
I1475
sVexact
p1247
I290
sVminute
p1248
I291
sVcool
p1249
I3935
sVswapping
p1250
I2703
sVJust
p1251
I1476
sVdid
p1252
I2704
sVturns
p1253
I1477
sVposts
p1254
I3937
sVAccommodations
p1255
I292
sVstrada
p1256
I1411
sVleave
p1257
I293
sVsolved
p1258
I294
sVspaces
p1259
I4065
sVoffering
p1260
I2663
sVbooking
p1261
I3868
sVteam
p1262
I295
sVquick
p1263
I3939
sVloads
p1264
I296
sVunaware
p1265
I297
sVdis
p1266
I2707
sVprevent
p1267
I298
sVtalked
p1268
I2708
sVsays
p1269
I3940
sVextenuating
p1270
I2709
sVwerblun
p1271
I3941
sVtrend
p1272
I3942
sVhindered
p1273
I299
sVokay
p1274
I4280
sVsign
p1275
I300
sVblue
p1276
I3650
sVaffiliation
p1277
I1481
sVcolin
p1278
I3943
sVipynd
p1279
I2711
sVtrisha
p1280
I301
sVanaconda
p1281
I302
sVrun
p1282
I2714
sVmigraines
p1283
I1482
sVre-add
p1284
I2715
sV12:20
p1285
I2716
sVmajors
p1286
I2717
sVadds
p1287
I2718
sVappear
p1288
I1483
sV*your
p1289
I3946
sV*discussion
p1290
I2719
sVassistance
p1291
I1484
sVcurrent
p1292
I303
sVescorted
p1293
I3070
sVImaging
p1294
I1485
sVtemplate
p1295
I2720
sVsignature.the
p1296
I304
sVshared
p1297
I1486
sV1st
p1298
I3958
sVaugmented
p1299
I3633
sVboost
p1300
I305
sVfilled
p1301
I2721
sVprocessing
p1302
I2024
sVunsure
p1303
I1487
sVinstall
p1304
I3684
sVpartners
p1305
I2222
sVguardian
p1306
I2723
sVfuneral
p1307
I307
sVmakeup
p1308
I2724
sVDSP
p1309
I2725
sVunderstanding
p1310
I308
sVwater
p1311
I3949
sVdownloaded
p1312
I1488
sVq2
p1313
I4632
sVaddress
p1314
I309
sValone
p1315
I310
sVq5
p1316
I4633
sValong
p1317
I311
sVhoops
p1318
I1490
sVappears
p1319
I1491
sVchange
p1320
I1492
sVwait
p1321
I2727
sVME
p1322
I312
sVsending
p1323
I1493
sVenroll
p1324
I313
sVannie
p1325
I4391
sV35904
p1326
I2728
sV35905
p1327
I2729
sVnoticeable
p1328
I3952
sV35909
p1329
I1972
sVstudied
p1330
I314
sVleeway
p1331
I2957
sVstep
p1332
I2731
sVwithdrawing
p1333
I2092
sVSession
p1334
I2733
sVJoshi
p1335
I315
sVdiagnosed
p1336
I2734
sVsuggestion
p1337
I2735
sVyup
p1338
I4015
sVusually
p1339
I1494
sVanna
p1340
I4454
sVweird
p1341
I3956
sVstudies
p1342
I316
sVbruised
p1343
I2736
sVgenuinely
p1344
I2737
sVcure
p1345
I3326
sVlove
p1346
I317
sVconsolation
p1347
I4457
sVextra
p1348
I1496
sVhopeful
p1349
I3957
sVmerely
p1350
I2739
sVprefer
p1351
I318
sVmarked
p1352
I1497
sVpercentage
p1353
I3741
sVsincerely
p1354
I1498
sVnon-current
p1355
I319
sVpenalized
p1356
I1499
sVinverses
p1357
I320
sVIPython
p1358
I321
sVrarely
p1359
I1501
sVchallenging
p1360
I1502
sVeverybody
p1361
I2741
sVterminal
p1362
I1503
sVCentral
p1363
I2561
sVfranco
p1364
I2742
sVworking
p1365
I322
sVprove
p1366
I1504
sVpositive
p1367
I323
sVprovi
p1368
I1505
sVvisit
p1369
I2743
sVDelayed
p1370
I324
sVangela
p1371
I1506
sVsports
p1372
I3960
sVlive
p1373
I1507
sVexplicitly
p1374
I325
sVandy
p1375
I3962
sVopposed
p1376
I326
sVwondering
p1377
I327
sVmemory
p1378
I3964
sVscope
p1379
I328
sVgoldberg
p1380
I2198
sVdeletes
p1381
I3878
sVcited
p1382
I1228
sVmarginally
p1383
I1510
sVbaek
p1384
I2744
sV``
p1385
I329
sVusp=sharing
p1386
I330
sVsessions
p1387
I3966
sVafford
p1388
I331
sVorganized
p1389
I48
sVacceptable
p1390
I2745
sVspecify
p1391
I4037
sVnguyen
p1392
I1512
sVderivation
p1393
I2813
sVwithdrawn
p1394
I4673
sVfar
p1395
I4222
sVTime
p1396
I3968
sVsundown
p1397
I2199
sV`x
p1398
I332
sVeffort
p1399
I2746
sVeasiest
p1400
I333
sV*you
p1401
I334
sVfly
p1402
I2748
sV8-10pm
p1403
I2749
sVinstructional
p1404
I1513
sVFamily
p1405
I3970
sVLiu
p1406
I2443
sVoriginally
p1407
I335
sVcap
p1408
I1514
sVflu
p1409
I2750
sVmodified
p1410
I3971
sVsoup
p1411
I2751
sVzhao
p1412
I336
sVprinting
p1413
I337
sVvalues
p1414
I338
sVcan
p1415
I1517
sVcal
p1416
I1518
sVbelieved
p1417
I340
sVbioengineering
p1418
I1519
sVbhautik
p1419
I1642
sVdosage
p1420
I2755
sVmeant
p1421
I1520
sVclassrooms
p1422
I2101
sVfigure
p1423
I3973
sVpredict
p1424
I2758
sVdecember
p1425
I1521
sVawesome
p1426
I341
sVarise
p1427
I4271
sVconfused
p1428
I2759
sVtopic
p1429
I1522
sVheard
p1430
I1523
sVScore
p1431
I2760
sVchin
p1432
I1524
sVdropped
p1433
I3974
sVcouncil
p1434
I2761
sVallowed
p1435
I342
sVrendition
p1436
I4657
sVgalbraith
p1437
I343
sVIssue
p1438
I2762
sVoccur
p1439
I1525
sVBooking
p1440
I2763
sVnormalize
p1441
I2764
sVrrr
p1442
I4515
sVMT2
p1443
I4287
sVrequirements
p1444
I3976
sVwinter
p1445
I344
sVMissing
p1446
I3977
sVdivided
p1447
I345
sVMidterm
p1448
I3492
sVwrite
p1449
I1527
sVtill
p1450
I2135
sVsunday
p1451
I2767
sVactual
p1452
I3597
sVfourth
p1453
I3979
sVConflicts
p1454
I3980
sVoptimal
p1455
I346
sVtaghizadehasl
p1456
I3764
sVguarantee
p1457
I3690
sVinputs
p1458
I2768
sVproduct
p1459
I1528
sVmar
p1460
I2770
sVmat
p1461
I2771
sV140
p1462
I2772
sVinformation
p1463
I3982
sVescalate
p1464
I1529
sVmax
p1465
I2774
sV2:30
p1466
I4388
sVspot
p1467
I347
sVapplications
p1468
I348
sVdato
p1469
I349
sVbrowsers
p1470
I3028
sVdesigned
p1471
I2775
sVcommit
p1472
I2655
sVdate
p1473
I350
sVsuch
p1474
I351
sVsuck
p1475
I352
sV8-11
p1476
I2876
sVdata
p1477
I353
sVmao
p1478
I2777
sVman
p1479
I2778
sVstress
p1480
I354
sVdeadlines
p1481
I3453
sVremember
p1482
I1530
sVwhenever
p1483
I1531
sV6th
p1484
I2194
sVsp
p1485
I355
sVq
p1486
I2782
sVinform
p1487
I3983
sVswitch
p1488
I2783
sVso
p1489
I356
sVtimes/pace
p1490
I4461
sVjain
p1491
I2784
sVkicked
p1492
I3654
sVcounsuling
p1493
I2558
sVtutoring
p1494
I357
sVse
p1495
I358
sV1a
p1496
I2827
sVrefund
p1497
I3986
sVwords
p1498
I4641
sVnonpayment
p1499
I1533
sVindeed
p1500
I1534
sVforfeit
p1501
I1535
sVdisplayed
p1502
I1536
sVunacceptable
p1503
I359
sVmaking
p1504
I2753
sVyears
p1505
I360
sVprofessors
p1506
I361
sVhiring
p1507
I362
sVepisodes
p1508
I363
sVoccasion
p1509
I3481
sVtablets
p1510
I1540
sVcsc
p1511
I3082
sVreattached
p1512
I364
sVcold
p1513
I1541
sVstill
p1514
I1542
sV\u201c
p1515
I365
sVblocked
p1516
I3988
sVcontinuity
p1517
I3773
sVgroup
p1518
I2788
sVthank
p1519
I2261
sVjia
p1520
I366
sVtroubles
p1521
I367
sVnontrivial
p1522
I368
sVee/eecs
p1523
I4344
sVEmergencies
p1524
I369
sVwindow
p1525
I1545
sVoffers
p1526
I3990
sVsuspicion
p1527
I370
sVpolicy
p1528
I2790
sVours
p1529
I2280
sVmain
p1530
I2792
sVlimbo
p1531
I371
sVhappened
p1532
I3992
sVcorrespondence
p1533
I1546
sVnon
p1534
I1547
sVemailed
p1535
I2793
sVmatches
p1536
I372
sVbackfoot
p1537
I2794
sVkiller
p1538
I2795
sVsooner
p1539
I2796
sVrecords
p1540
I373
sVqualified
p1541
I3994
sVcourse
p1542
I2239
sV10pm
p1543
I3430
sVhalf
p1544
I1548
sVarriving
p1545
I374
sVsorted
p1546
I375
sVnow
p1547
I1550
sVdiscuss
p1548
I1551
sVnor
p1549
I1552
sVwont
p1550
I1553
sVdown
p1551
I2659
sVterm
p1552
I3995
sVworkload
p1553
I2798
sVname
p1554
I3996
sVsophomore
p1555
I3997
sVjanuary
p1556
I1555
sVtimes
p1557
I3689
sVdidn
p1558
I376
sVrevert
p1559
I377
sVpossibilities
p1560
I3998
sVwong
p1561
I1557
sVtesting
p1562
I2552
sV8am-12pmpronouns
p1563
I378
sVtardisexploding
p1564
I3999
sVentirely
p1565
I1558
sVEvent
p1566
I2801
sVindividually
p1567
I4000
sVel
p1568
I1559
sVdomain
p1569
I1560
sVweighted
p1570
I4001
sVsignificantly
p1571
I1561
sVee
p1572
I1562
sVed
p1573
I1563
sVreceipt
p1574
I379
sVea
p1575
I1564
sVyeah
p1576
I1565
sVSelf-Grades
p1577
I4672
sVchallenges
p1578
I1566
sVblanks
p1579
I2448
sV*not*
p1580
I2802
sVex
p1581
I1567
sVbegun
p1582
I4003
sVyear
p1583
I1568
sVet
p1584
I1569
sVhappen
p1585
I1570
sVavoided
p1586
I1571
sVlesson
p1587
I3312
sVer
p1588
I1572
sVshown
p1589
I1573
sVAdded
p1590
I380
sVMARCH
p1591
I381
sV3rd
p1592
I2804
sVspace
p1593
I1575
sVfurthermore
p1594
I1576
sVREQUIRED
p1595
I382
sVinterference
p1596
I2805
sVlooking
p1597
I1
sVmess
p1598
I3694
sVcontained
p1599
I383
sVinvestigation
p1600
I384
sVimperative
p1601
I2806
sVrational
p1602
I1578
sVinternet
p1603
I385
sVsuggesting
p1604
I386
sVincidents
p1605
I4521
sVreceiving
p1606
I1579
sVcorrect
p1607
I2807
sVeecs47d
p1608
I1580
sVshows
p1609
I1581
sVexactly
p1610
I2187
sVcreating
p1611
I4382
sVearlier
p1612
I2808
sVValerie
p1613
I387
sVnumber*
p1614
I3085
sVmaterial
p1615
I4578
sVpossibility
p1616
I388
sVquite
p1617
I389
sVinputting
p1618
I1583
sVtime.com
p1619
I390
sVlmk
p1620
I1585
sVkrishnan
p1621
I391
sVbesides
p1622
I392
sVinhaler
p1623
I393
sVaccommodation
p1624
I4014
sVcare
p1625
I1586
sVpartner
p1626
I3542
sVadvance
p1627
I2812
sVdrowsiness
p1628
I2472
sVcouldn
p1629
I1587
sV.pynb
p1630
I394
sVpertains
p1631
I3497
sVcollapsing
p1632
I395
sVtransition
p1633
I1588
sViterative
p1634
I396
sVCompensation
p1635
I4283
sVcorroborating
p1636
I4017
sVhonest
p1637
I1589
sVthing
p1638
I2814
sVregistrar
p1639
I2815
sVinvitation
p1640
I1590
sV12:40am
p1641
I4020
sV510
p1642
I1591
sVview
p1643
I4645
sV26503669
p1644
I4449
sVEric
p1645
I1592
sVwaited
p1646
I2818
sVpermit
p1647
I2422
sVHW1/HW2
p1648
I397
sVspoked
p1649
I398
sVinitial
p1650
I1593
sVsaving
p1651
I399
sVspoken
p1652
I400
sVvariables
p1653
I1594
sVcoming
p1654
I3087
sVone
p1655
I401
sVwww..com
p1656
I402
sV5-7pm
p1657
I403
sVspecifically
p1658
I404
sVdirectly
p1659
I1596
sVpresident
p1660
I2451
sVvote
p1661
I405
sVimpossible
p1662
I1597
sVmessage
p1663
I1598
sVforwarding
p1664
I1599
sVopen
p1665
I406
sVtomorrow
p1666
I1600
sVripping
p1667
I407
sVsize
p1668
I84
sVlittle
p1669
I2823
sVnecessarily
p1670
I87
sVsheet
p1671
I88
sVMonday
p1672
I408
sVcaught
p1673
I1604
sVslept
p1674
I2825
sVProblems
p1675
I2826
sVremotely
p1676
I1605
sVanyone
p1677
I2499
sVtimings
p1678
I3954
sVreturns
p1679
I4028
sV2
p1680
I409
sVdraft
p1681
I410
sVfreebie
p1682
I1607
sVescort
p1683
I2829
sVtyping
p1684
I411
sVparticipated
p1685
I2830
sVcite
p1686
I412
sVfriend
p1687
I1608
sVgives
p1688
I4029
sVarda
p1689
I4285
sVwrongdoing
p1690
I4030
sVmostly
p1691
I1609
sVthat
p1692
I1610
sVshawn
p1693
I413
sVkeertana
p1694
I3893
sVproving
p1695
I414
sVaccurately
p1696
I2832
sValan
p1697
I4033
sVworded
p1698
I3036
sVsupply
p1699
I4715
sVscheduler/eecs
p1700
I846
sVdanny
p1701
I3696
sVPDF
p1702
I137
sVcopy
p1703
I4036
sVthan
p1704
I144
sVcoefficients
p1705
I2833
sVFollow
p1706
I3817
sV11
p1707
I2834
sV10
p1708
I2835
sV13
p1709
I2836
sV12
p1710
I2837
sV15
p1711
I2838
sV14
p1712
I2839
sV17
p1713
I2840
sV16
p1714
I2545
sV19
p1715
I2842
sV18
p1716
I2843
sVrequire
p1717
I4039
sVsummary
p1718
I2803
sVtransferred
p1719
I1614
sVsiding
p1720
I416
sVfuture
p1721
I417
sVpiercy
p1722
I3240
sVwere
p1723
I2845
sVoutcome
p1724
I4041
sVsophia
p1725
I418
sV1.
p1726
I2846
sVand
p1727
I4042
sVfork
p1728
I2662
sVillness
p1729
I419
sVsam
p1730
I420
sVcorrection
p1731
I1616
sVturned
p1732
I421
sVargument
p1733
I422
sVSubmit
p1734
I423
sV25404344
p1735
I4044
sVmedical
p1736
I2530
sVsay
p1737
I424
sVInquiry
p1738
I425
sVburied
p1739
I426
sVsap
p1740
I427
sVsaw
p1741
I428
sVcalendar
p1742
I2889
sVkevin
p1743
I2848
sVcoach
p1744
I3918
sV*yes*
p1745
I429
sVelongating
p1746
I2608
sVallison
p1747
I3697
sVefficient
p1748
I2849
sVanswering
p1749
I2850
sVaside
p1750
I430
sVbigger
p1751
I4301
sVnote
p1752
I431
sVjingjing
p1753
I1432
sVintends
p1754
I432
sVpotential
p1755
I2851
sVattending
p1756
I3659
sVtake
p1757
I433
sVroster
p1758
I2860
sVonline
p1759
I1621
sVobjective
p1760
I1622
sVtimers
p1761
I61
sVpersonalized
p1762
I2853
sVwonder
p1763
I2890
sVbecoming
p1764
I1433
sVchannel
p1765
I2855
sV200
p1766
I2857
sVbegin
p1767
I1623
sVprinter
p1768
I435
sValtered
p1769
I192
sV204
p1770
I2859
sVGetting
p1771
I437
sVbuffer
p1772
I438
sVryuga
p1773
I1624
sVprice
p1774
I1625
sVDrop
p1775
I439
sVpaid
p1776
I2862
sVfalls
p1777
I4053
sVtalk
p1778
I2785
sValgebraic
p1779
I1626
sVbeta
p1780
I2863
sVconnor
p1781
I4054
sVfreshman
p1782
I4055
sVamerica
p1783
I1627
sV]
p1784
I1628
sVpages
p1785
I440
sVmichelle
p1786
I1629
sVespecially
p1787
I2864
sVfills
p1788
I2865
sVconsidered
p1789
I263
sVaverage
p1790
I441
sVlater
p1791
I4060
sVsteady
p1792
I1630
sVdrive
p1793
I442
sV11-2pm
p1794
I2866
sVmanaging
p1795
I4081
sVproperly
p1796
I2039
sVChen
p1797
I444
sVredirected
p1798
I445
sVsenior
p1799
I279
sVamir
p1800
I3698
sVtypically
p1801
I1632
sVfiling
p1802
I1633
sVnot*
p1803
I447
sVmadison
p1804
I448
sVshot
p1805
I2867
sVrambling
p1806
I1634
sVshow
p1807
I2868
sVcheat
p1808
I4063
sVdangelewicz
p1809
I1635
sVcommitments
p1810
I4083
sVdiscovered
p1811
I1636
sVFellowship
p1812
I4064
sVbright
p1813
I449
sVtherapist
p1814
I2869
sVelad
p1815
I450
sV3031939353
p1816
I4066
sVground
p1817
I1637
sVslot
p1818
I451
sVre-doing
p1819
I2870
sVslow
p1820
I452
sVratio
p1821
I1638
sVnice
p1822
I4485
sVtitle
p1823
I1639
sV2-5pm
p1824
I2664
sVfinalized
p1825
I3093
sVbehind
p1826
I2871
sVeither
p1827
I3296
sVConcurrent
p1828
I4068
sVonly
p1829
I1640
sVgoing
p1830
I453
sVberkeley.eduwww.laurawaller.com
p1831
I1641
sVgerms
p1832
I2872
sVwatching
p1833
I4637
sVcaroline
p1834
I454
sVdispute
p1835
I455
sVdirected
p1836
I3319
sVAlternate
p1837
I3701
sVunavailable
p1838
I4517
sVclosed
p1839
I4656
sVlegitimate
p1840
I3985
sVget
p1841
I2873
sVassistant
p1842
I456
sVautograder
p1843
I2874
sVsamuel
p1844
I1643
sVdesignated
p1845
I2875
sVexpectation
p1846
I4070
sVtruly
p1847
I1644
sVrepo
p1848
I2877
sVkillers
p1849
I2878
sVdetermine
p1850
I4163
sVprogress
p1851
I3507
sV110+55
p1852
I1645
sVmajor
p1853
I4289
sVwallerted
p1854
I1646
sVcelebrate
p1855
I1647
sVdisabled
p1856
I4290
sVregarding
p1857
I4071
sVresource
p1858
I457
sVintuitive
p1859
I2041
sVdocumentation
p1860
I1830
sVsproul
p1861
I3702
sVworried
p1862
I458
sVsum
p1863
I4239
sVfulfilling
p1864
I4474
sVexcuses
p1865
I3686
sVworries
p1866
I459
sVthrough
p1867
I3094
sVfinishing
p1868
I2880
sVyeung
p1869
I2881
sVwhere
p1870
I460
sV16th
p1871
I461
sVy'all
p1872
I4073
sVignored
p1873
I4074
sVdeclared
p1874
I2882
sVhonesty
p1875
I2883
sVvariability
p1876
I4660
sVphysically
p1877
I1648
sVinnovative
p1878
I2884
sVseat
p1879
I2885
sVrelative
p1880
I2886
sVnamely
p1881
I1649
sVcollege
p1882
I4075
sVsean
p1883
I2887
sVeliminating
p1884
I2888
sV7:00-10:00
p1885
I2460
sVapologies
p1886
I4076
sVstanley
p1887
I4077
sVsurgery
p1888
I462
sVsport
p1889
I1650
sVsnaheth
p1890
I3873
sVconcern
p1891
I1651
sVFollowup
p1892
I463
sV833
p1893
I464
sVdetect
p1894
I4079
sVWrongly
p1895
I2892
sVbicyclist
p1896
I4080
sVways
p1897
I443
sVsubsequent
p1898
I4082
sVreview
p1899
I446
sVthurs
p1900
I1652
sVHours
p1901
I2893
sV3
p1902
I1653
sVstomachache
p1903
I4269
sVbetween
p1904
I1654
sVaffecting
p1905
I465
sVimport
p1906
I1655
sVreading
p1907
I2895
sVnathaniel
p1908
I1656
sVsmoothy
p1909
I466
sVmultiplied
p1910
I4085
sVnotice
p1911
I1657
sVinfrastructure
p1912
I2897
sVmandara
p1913
I2898
sVuseful
p1914
I2738
sVju
p1915
I2899
sVscreen
p1916
I467
sVjacobs
p1917
I4291
sVelijah
p1918
I468
sVanalyzed
p1919
I1658
sV20
p1920
I3101
sVcome
p1921
I4086
sVkirsten
p1922
I2900
sVcs-advising
p1923
I4770
sVvishakh
p1924
I469
sVdates
p1925
I2901
sVglitchy
p1926
I2668
sVinstallation
p1927
I1659
sVmany
p1928
I470
sVjericho
p1929
I4087
sVaccording
p1930
I2902
sVself-grades
p1931
I3876
sVofficer
p1932
I3869
sVpersonal
p1933
I2464
sVs
p1934
I471
sVsteroid
p1935
I2903
sV2/28
p1936
I2904
sV2/26
p1937
I2905
sVraya
p1938
I2766
sVmann
p1939
I472
sVallowance
p1940
I473
sV12:06
p1941
I2907
sVDeath
p1942
I1662
sV12:00
p1943
I2908
sV6:30
p1944
I2909
sV12:02
p1945
I2910
sV.edu
p1946
I474
sVperiod
p1947
I4089
sV6.
p1948
I508
sVinnovations
p1949
I2911
sVNote
p1950
I4091
sVconfirm
p1951
I2981
sVlearning
p1952
I1663
sVcancel
p1953
I2912
sVmoreover
p1954
I1664
sVbizarre
p1955
I4092
sVricardo
p1956
I4292
sVnose
p1957
I2974
sVcramps
p1958
I475
sVsave
p1959
I2627
sVoliver
p1960
I1665
sVmarc
p1961
I2989
sV2pm
p1962
I3510
sVinformed
p1963
I1667
sVcheckoffs
p1964
I1862
sVmark
p1965
I2914
sVattaching
p1966
I2915
sVcounts
p1967
I2427
sVpunished
p1968
I1668
sVlikewise
p1969
I476
sVprototype
p1970
I477
sV35899
p1971
I4758
sVBug
p1972
I4094
sVwants
p1973
I478
sV*subject*
p1974
I479
sVenable
p1975
I480
sVshopping
p1976
I2916
sVoffered
p1977
I2917
sVandrew
p1978
I4096
sVreaching
p1979
I4519
sVphotos
p1980
I481
sVobserve
p1981
I482
sVexternal
p1982
I1669
sVcareful
p1983
I4098
sVprof.
p1984
I2918
sVformer
p1985
I483
sVthose
p1986
I2919
sV^
p1987
I2920
sVsound
p1988
I2921
sVmyself
p1989
I4101
sVkappa
p1990
I2922
sV4-7
p1991
I1670
sVthese
p1992
I1671
sVconsultant
p1993
I484
sVaccommodating
p1994
I1672
sVsingle
p1995
I3325
sVprofessional
p1996
I1631
sVn't
p1997
I2925
sVadmin
p1998
I4102
sVvaleriano
p1999
I2926
sVsiobhan
p2000
I2927
sV_________________________________________________laura
p2001
I486
sVtutors
p2002
I1660
sVsituation
p2003
I487
sVeugene
p2004
I3704
sV*should
p2005
I2929
sVtaking
p2006
I3512
sVcart
p2007
I1582
sVgenerate
p2008
I4316
sVAsthma
p2009
I2930
sVconferences
p2010
I2931
sVmetric
p2011
I1673
sVIllness
p2012
I4684
sV642-1786hours
p2013
I2932
sVsprained
p2014
I2933
sVcanceled
p2015
I1674
sVgood
p2016
I3107
sVsomebody
p2017
I4297
sVactivity
p2018
I4366
sVtechnology
p2019
I488
sVawhile
p2020
I2671
sVworry
p2021
I1677
sVcomments
p2022
I3923
sVdebilitating
p2023
I489
sVperhaps
p2024
I4695
sVverified
p2025
I490
sVharsh
p2026
I2937
sV6:15-7:15
p2027
I3371
sVconservation
p2028
I1427
sVinquire
p2029
I1678
sV11.5
p2030
I1679
sVgranted
p2031
I4105
sV___
p2032
I2780
sVreminded
p2033
I4106
sVeecs-advising
p2034
I2940
sVsame
p2035
I2941
sVcheck
p2036
I3905
sVExcuse
p2037
I4108
sVinquiry
p2038
I1680
sVtimestamp
p2039
I4109
sV*link*
p2040
I1681
sVdocument
p2041
I1682
sVevents
p2042
I4111
sVconflicted
p2043
I4230
sVweek
p2044
I669
sVjeffrey
p2045
I2944
sVfinish
p2046
I1683
sVfaculty
p2047
I4023
sVsickness
p2048
I492
sVI
p2049
I493
sVkelvin
p2050
I4114
sV^t
p2051
I4623
sVassist
p2052
I3129
sVradically
p2053
I3906
sVnoticing
p2054
I3110
sVdirector
p2055
I644
sVrunning
p2056
I2946
sVfruit
p2057
I1684
sVdriven
p2058
I4115
sVtwo
p2059
I3058
sVPDFs
p2060
I2947
sV%
p2061
I3329
sVreadjustment
p2062
I4356
sVtotally
p2063
I2948
sVadvisor205
p2064
I1685
sVmentally
p2065
I1686
sVhw10
p2066
I4119
sVbreak
p2067
I1261
sVlargely
p2068
I2949
sVcharger
p2069
I1687
sVcoursework
p2070
I495
sVstudents-book
p2071
I1688
sVclobber
p2072
I496
sVre-selecting
p2073
I1689
sVsevere
p2074
I1690
sVccn
p2075
I1691
sVsolve
p2076
I2950
sVcomes
p2077
I1661
sVcomponents
p2078
I4122
sValfredo
p2079
I497
sVbumping
p2080
I2951
sVin-scope
p2081
I498
sVcharged
p2082
I1692
sVsummer
p2083
I499
sVmalicious
p2084
I4483
sVnoah
p2085
I1693
sVbeing
p2086
I500
sVgenerally
p2087
I2674
sVguided
p2088
I4126
sVadjustments
p2089
I2954
sVyinuo
p2090
I4127
sV218
p2091
I501
sVunofficial
p2092
I2956
sVcommunities
p2093
I4299
sVunclear
p2094
I4667
sVgreetings
p2095
I1695
sVaspect
p2096
I2958
sV7:10-9:55
p2097
I502
sVtouch
p2098
I1696
sVplugged
p2099
I3332
sVweekly
p2100
I503
sVannouncement
p2101
I4129
sVdeath
p2102
I1697
sVasthma
p2103
I2959
sV11.5e
p2104
I504
sVthinking
p2105
I1698
sVCaleb/Angie
p2106
I4130
sVHw11
p2107
I4243
sVOutage
p2108
I2960
sVseems
p2109
I4131
sVexcept
p2110
I4132
sVkimberly
p2111
I4133
sV9:30
p2112
I1699
sVtreatment
p2113
I1700
sVinstructions
p2114
I4302
sVtuesday
p2115
I2267
sVChange
p2116
I4134
sVreal
p2117
I1702
sVaspects
p2118
I505
sVaround
p2119
I506
sVrules
p2120
I783
sVvirginia
p2121
I4136
sVvivek
p2122
I2963
sVamy
p2123
I789
sVdepartment
p2124
I2964
sVcampos
p2125
I1705
sVpreference
p2126
I510
sVmom
p2127
I2966
sVschedules
p2128
I4138
sVamp
p2129
I797
sVaccepted
p2130
I798
sVdisappointed
p2131
I2967
sVvague
p2132
I509
sVpst
p2133
I1707
sVmeaning
p2134
I4489
sVchristina
p2135
I2968
sVchristine
p2136
I2969
sVsubscribe
p2137
I4670
sVpatrick
p2138
I4140
sVreduces
p2139
I4141
sVbracelet
p2140
I4142
sVserves
p2141
I2970
sV've
p2142
I2971
sVdiscarded
p2143
I511
sVsundays
p2144
I1850
sVaudience
p2145
I2973
sVserious
p2146
I3917
sVmanan
p2147
I512
sVt
p2148
I1708
sVfully
p2149
I1851
sVoutput
p2150
I1709
sVTA
p2151
I2051
sVendorsed
p2152
I836
sVreduced
p2153
I4143
sVaccommodate
p2154
I3885
sVgrouping
p2155
I513
sVoverbooked
p2156
I1711
sVseating
p2157
I514
sVboensch
p2158
I515
sVself-grade
p2159
I516
sVpicture
p2160
I3913
sVcountersign
p2161
I3112
sVgmail
p2162
I4653
sV\u201d
p2163
I4045
sVpacific
p2164
I4144
sVcognitive
p2165
I3281
sVashray
p2166
I1712
sVspecified
p2167
I2976
sVimages
p2168
I2977
sVintend
p2169
I1713
sVintact
p2170
I4146
sVorganizing
p2171
I2978
sVthinks
p2172
I517
sVdaytime
p2173
I2650
sV7am
p2174
I2526
sVdropping
p2175
I3228
sV\u1427
p2176
I518
sVviraj
p2177
I1715
sVnon-dsp
p2178
I2269
sVconsciously
p2179
I4370
sVrecorded
p2180
I1716
sVdimnul
p2181
I2982
sVhour
p2182
I3936
sVchose
p2183
I4522
sVthroat
p2184
I3468
sVdeficit
p2185
I1717
sV23rd
p2186
I519
sVredid
p2187
I4149
sVrefer
p2188
I520
sVconsidering
p2189
I2913
sVfelt
p2190
I2678
sVcontingent
p2191
I521
sVpower
p2192
I522
sVasap
p2193
I1719
sVinternship
p2194
I523
sVyafei
p2195
I1720
sVtuition
p2196
I1721
sVbroken
p2197
I2985
sVmeets
p2198
I2603
sVsuchir
p2199
I3336
sVhectic
p2200
I1722
sVfractured
p2201
I1723
sVfrancis
p2202
I1724
sVreleased
p2203
I4034
sVmajoring
p2204
I524
sVcentral
p2205
I1726
sV[
p2206
I3950
sVstations
p2207
I2988
sV'medical
p2208
I2475
sVindustry
p2209
I525
sVmisgraded
p2210
I3399
sVdiscussed
p2211
I4157
sVfactors
p2212
I4008
sVsheng
p2213
I4455
sV-623-7738
p2214
I1451
sVnothing
p2215
I4353
sVgreatly
p2216
I1727
sV28.
p2217
I3564
sVForgot
p2218
I1728
sVmixed
p2219
I2992
sVou
p2220
I4158
sVmean
p2221
I2477
sVor
p2222
I4159
sVroad
p2223
I2993
sVpre-op
p2224
I1729
sVoutlook
p2225
I1730
sVNo
p2226
I527
sVcommunication
p2227
I4161
sVimage
p2228
I528
sVsigning
p2229
I3714
sVinnovation
p2230
I4452
sVin/not
p2231
I4093
sV94720
p2232
I1731
sVAdd
p2233
I1732
sVaccounts
p2234
I984
sVdarren
p2235
I3525
sVcertifying
p2236
I529
sVapologize
p2237
I530
sVelementary
p2238
I1733
sVpivot
p2239
I531
sVhappening
p2240
I2681
sVMeeting
p2241
I1734
sVyour
p2242
I1735
sVtheoretically
p2243
I4165
sVtechnically
p2244
I532
sVstare
p2245
I995
sVWhile
p2246
I1924
sVweight
p2247
I4306
sVsupervising
p2248
I1737
sVlog
p2249
I996
sVher
p2250
I533
sVassumed
p2251
I1001
sVWoz
p2252
I2479
sVhey
p2253
I534
sVlol
p2254
I1742
sV3-4pm
p2255
I535
sVlos
p2256
I1005
sV5790.
p2257
I536
sV732
p2258
I4677
sVmondays
p2259
I2997
sVlow
p2260
I1744
sVlot
p2261
I1745
sVre-enroll
p2262
I537
sVHomeworks
p2263
I2998
sVtransitioning
p2264
I1747
sValameda
p2265
I2999
sVstrict
p2266
I4167
sVyah
p2267
I4170
sVdiscirbed
p2268
I4171
sVresubmissions
p2269
I1748
sVcomplete
p2270
I538
sVenough
p2271
I2894
sVregard
p2272
I4172
sVbollapragada
p2273
I3001
sVdelayed
p2274
I1749
sVamongst
p2275
I4173
sVidea
p2276
I4174
sV41611
p2277
I1750
sVcsm
p2278
I3981
sVcid=361
p2279
I539
sVInvitation
p2280
I540
sVelimination
p2281
I541
sVe
p2282
I2058
sVtrying
p2283
I1751
sVwith
p2284
I542
sVbuying
p2285
I543
sVcheated
p2286
I1453
sVpull
p2287
I544
sVrush
p2288
I545
sVapplying
p2289
I4179
sVmcneely
p2290
I2682
sVvarun
p2291
I546
sVdefault
p2292
I1754
sVhw7
p2293
I4184
sVsouthwest.com
p2294
I2955
sVembed
p2295
I3003
sVdefine
p2296
I3527
sVagree
p2297
I547
sVconnect
p2298
I3123
sVdetailed
p2299
I548
sVgone
p2300
I549
sVab
p2301
I550
sVmoney
p2302
I2953
sVvideos
p2303
I3005
sVai
p2304
I551
sVcertain
p2305
I552
sVcitation
p2306
I3007
sVam
p2307
I553
sVal
p2308
I554
sVdeep
p2309
I3008
sVan
p2310
I555
sValarm
p2311
I865
sVas
p2312
I556
sVscanned
p2313
I1757
sVat
p2314
I557
sVfile
p2315
I3010
sS'unk'
p2316
I4771
sVadvising
p2317
I3750
sVwatched
p2318
I558
sVhw4
p2319
I1089
sVhw5
p2320
I4186
sVhw2
p2321
I4187
sVhw3
p2322
I4188
sVhw0
p2323
I4189
sVfill
p2324
I3012
sVincorrect
p2325
I4191
sVagain
p2326
I3013
sVknow
p2327
I4719
sVdeserve
p2328
I4192
sVdiarrhea
p2329
I4193
sVLab
p2330
I1758
sVgraduate
p2331
I559
sVfield
p2332
I3014
sVvalid
p2333
I1759
sV5
p2334
I4194
sVselfgrade
p2335
I4195
sVmathematics
p2336
I1760
sVyou
p2337
I1761
sVintention
p2338
I4745
sVpoor
p2339
I1762
sVrequested
p2340
I4196
sVtrip
p2341
I4107
sVchampionship
p2342
I4198
sVla
p2343
I3419
sVannex
p2344
I560
sVstudents
p2345
I3015
sVrefunded
p2346
I561
sVreached
p2347
I3455
sVm
p2348
I2531
sValay
p2349
I4035
sVincludes
p2350
I4200
sVa1
p2351
I562
sVcoding
p2352
I3733
sVimportant
p2353
I3016
sVsuited
p2354
I1763
sVplanners
p2355
I563
sVchris
p2356
I3017
sVdropbox
p2357
I3018
sVsaurav
p2358
I1764
sVhws
p2359
I1133
sVpool
p2360
I1765
sVjuniors
p2361
I1861
sVbuilding
p2362
I1766
sVbooked
p2363
I4203
sVindividual
p2364
I4612
sVwife
p2365
I4204
sVsobbing
p2366
I564
sV3-4
p2367
I1768
sVfinished
p2368
I3530
sVhello
p2369
I565
sVexhausting
p2370
I4206
sVcouse
p2371
I1769
sVpassed
p2372
I4331
sVu
p2373
I3020
sVprocedure
p2374
I3820
sValright
p2375
I3021
sVpreview
p2376
I3672
sVresolution
p2377
I3022
sVoriginal
p2378
I566
sVsishelp
p2379
I3409
sV//piazza.com/class/hyq0br1u3kx7dg
p2380
I3023
sVrepresent
p2381
I3024
sVall
p2382
I1173
sVattre
p2383
I567
sVconsider
p2384
I568
sVprioritized
p2385
I1176
sVTAs
p2386
I3027
sVcaused
p2387
I569
sVlack
p2388
I4209
sVmonth
p2389
I1772
sVimproved
p2390
I4682
sVthoughtful
p2391
I1773
sVUnable
p2392
I571
sVdeadline
p2393
I1774
sV-dustin
p2394
I572
sVimplement
p2395
I3381
sVfaster
p2396
I4177
sVpts
p2397
I1192
sVreasoning
p2398
I573
sVcauses
p2399
I574
sVemily
p2400
I3030
sVequipment
p2401
I1619
sVreferring
p2402
I1776
sVre
p2403
I82
sVswitched
p2404
I1460
sVBraun
p2405
I1777
sVthursday
p2406
I4215
sVspirit
p2407
I4099
sVto
p2408
I575
sVprogram
p2409
I1214
sVissued
p2410
I4496
sVACTION
p2411
I4217
sVhealth
p2412
I4311
sVenjoying
p2413
I3031
sVparticipating
p2414
I3801
sVta
p2415
I576
sVweeks
p2416
I2468
sVwww.linkedin.com/in/roey-lazarovits
p2417
I2891
sVfax
p2418
I4219
sVappointment
p2419
I577
sVreturned
p2420
I578
sVconfidential
p2421
I1778
sV1pm
p2422
I1779
sVvery
p2423
I1780
sVfaq
p2424
I4223
sVmultiple
p2425
I4051
sVfocus
p2426
I3921
sVvera
p2427
I1781
sVIpython
p2428
I1869
sVscout
p2429
I3033
sVworst
p2430
I4224
sV***
p2431
I4225
sVdecide
p2432
I1782
sVsurprise
p2433
I2487
sVreply
p2434
I3948
sVwinning
p2435
I3421
sVelena
p2436
I579
sVmanageable
p2437
I580
sVeleng
p2438
I581
sVcondition
p2439
I582
sVtreating
p2440
I4227
sVleads
p2441
I3922
sVnick
p2442
I4484
sVdeficient
p2443
I1784
sVevaluation
p2444
I3128
sVlist
p2445
I4228
sVjoined
p2446
I583
sVgrandfather
p2447
I4229
sVlarge
p2448
I584
sV110.
p2449
I2924
sVadjust
p2450
I585
sV-1
p2451
I1785
sV-2
p2452
I1786
sVsmall
p2453
I586
sVmeds
p2454
I4450
sVhandwritten
p2455
I3791
sV11:59
p2456
I2811
sVraghava
p2457
I1787
sVtitled
p2458
I3039
sVedt
p2459
I4497
sVten
p2460
I4231
sVcollegiate
p2461
I3019
sVlecture
p2462
I3441
sVlydiafor
p2463
I3040
sV*instructions
p2464
I587
sVpast
p2465
I588
sVOnly
p2466
I3041
sVtitles
p2467
I3042
sVcatching
p2468
I4002
sVperspective
p2469
I3043
sVpass
p2470
I589
sVfurther
p2471
I3044
sVchoices
p2472
I4686
sVcoudl
p2473
I1789
sVended
p2474
I4175
sVcompile
p2475
I3045
sVwhat
p2476
I4236
sVincompletes
p2477
I4237
sVabe
p2478
I3046
sVrichard
p2479
I590
sVtrhough
p2480
I3047
sVdeeply
p2481
I4238
sVsection
p2482
I591
sVcircumstance
p2483
I3130
sVbrief
p2484
I4240
sVhacked
p2485
I4009
sVEE
p2486
I3131
sVversion
p2487
I4241
sVbrier
p2488
I4242
sVlearned
p2489
I1790
sVmethod
p2490
I592
sVdaily
p2491
I2684
sVAccomodation
p2492
I1791
sVhasn
p2493
I593
sVfull
p2494
I594
sVpolicies
p2495
I3049
sVSelf-Grade
p2496
I595
sV11-12
p2497
I596
sVeligibility
p2498
I4244
sVcomponent
p2499
I3050
sVmisread
p2500
I2691
sVanswers
p2501
I1792
sVvomiting
p2502
I597
sVhours
p2503
I598
sVBuffer
p2504
I2136
sVtolerance
p2505
I2560
sV*important
p2506
I4245
sVsutandi
p2507
I599
sVdirections
p2508
I4246
sVi.e
p2509
I1794
sVnovember
p2510
I3807
sVstrong
p2511
I1795
sVtable
p2512
I4145
sVtragedy
p2513
I4248
sV2a:1a
p2514
I3051
sVsearch
p2515
I3052
sVahead
p2516
I1796
sVextraordinary
p2517
I3133
sVSecurity
p2518
I4013
sVintroductory
p2519
I600
sVcompliance
p2520
I601
sVallows
p2521
I4250
sVreason
p2522
I1874
sVexperience
p2523
I602
sVunfortunately
p2524
I4038
sVprior
p2525
I603
sVamount
p2526
I1797
sVtiffany
p2527
I4169
sVsocial
p2528
I604
sVaction
p2529
I605
sVoptions
p2530
I4251
sVduzer
p2531
I2490
sVheadache
p2532
I4332
sVvia
p2533
I607
sVfollowed
p2534
I608
sVase
p2535
I1875
sVfamily
p2536
I1799
sVsuddenly
p2537
I4252
sVvin
p2538
I609
sVAm
p2539
I3006
sVglitch
p2540
I1800
sVsemester
p2541
I4253
sVsanction
p2542
I3055
sVpdfs
p2543
I4255
sVestablish
p2544
I3056
sVselect
p2545
I610
sVenvironment
p2546
I3928
sVsilva
p2547
I78
sVattendance
p2548
I612
sV850
p2549
I613
sVtakes
p2550
I1801
sV0
p2551
I2696
sVcontains
p2552
I1803
sV858
p2553
I614
sVvlsb
p2554
I615
sVgot
p2555
I3721
sVkamala
p2556
I3136
sVcomparing
p2557
I3059
sVcompensate
p2558
I1466
sV6
p2559
I616
sVtaken
p2560
I1804
sVinjury
p2561
I1805
sV8:26
p2562
I1806
sVmore
p2563
I619
sVreattach
p2564
I1808
sVdoor
p2565
I620
sVknows
p2566
I4258
sVjr.
p2567
I1809
sVcorrected
p2568
I621
sVConfession
p2569
I3743
sVexcuse
p2570
I1810
sVlanded
p2571
I3060
sVFill-in-the-blanks
p2572
I3138
sVstick
p2573
I1457
sVregrettably
p2574
I1811
sVparticular
p2575
I3061
sVknown
p2576
I4260
sVsleeping
p2577
I3062
sVglad
p2578
I4261
sVtown
p2579
I3063
sVhardware
p2580
I1083
sVkeeping
p2581
I622
sVplagiarism
p2582
I4263
sVrubriks
p2583
I3065
sVvladimir
p2584
I3066
sVmiddle
p2585
I2934
sVscience
p2586
I623
sVequation
p2587
I4264
sVfaced
p2588
I3799
sVdev
p2589
I3067
sV12:40pm
p2590
I3068
sVliu
p2591
I1902
sVremain
p2592
I3069
sVvs
p2593
I1814
sVresources
p2594
I902
sVcaveat
p2595
I4265
sVlearn
p2596
I625
sVmale
p2597
I626
sValyssa
p2598
I1815
sVdef
p2599
I3071
sVhistory
p2600
I1816
sV11:30
p2601
I3349
sVswitching
p2602
I2854
sVprompt
p2603
I628
sVcheck-offs
p2604
I629
sVscan
p2605
I630
sVhalf-credit
p2606
I1817
sVlocating
p2607
I3202
sVsuggestions
p2608
I631
sV*do*
p2609
I632
sVaccept
p2610
I633
sVterrible
p2611
I1879
sVstates
p2612
I634
sVminimum
p2613
I3073
sVnumbers
p2614
I3074
sVpurchased
p2615
I3075
sVsense
p2616
I635
sVsharp
p2617
I3076
sV61a
p2618
I4273
sVdress
p2619
I636
sV!
p2620
I3077
sVhuge
p2621
I637
sVneeds
p2622
I3078
sVanswer
p2623
I2446
sVgoal
p2624
I4275
sVUrgent
p2625
I3079
sVrather
p2626
I4276
sVsajal
p2627
I4693
sVplans
p2628
I4005
sVcomfort
p2629
I3080
sVinhalers
p2630
I3081
sVMisunderstanding
p2631
I638
sVdismissed
p2632
I639
sVautomatic
p2633
I3782
sVoccasionally
p2634
I4277
sV*catalog*
p2635
I641
sVFall
p2636
I1819
sVQingen
p2637
I1820
sV61C
p2638
I4279
sVstrongly
p2639
I4180
sVfr
p2640
I1821
sVworkspaces
p2641
I3083
sVintended
p2642
I642
sValgebra
p2643
I4281
sVsuppose
p2644
I2590
sVadvice
p2645
I3084
sVderived
p2646
I1823
sVlong
p2647
I2820
sVreflect
p2648
I4282
sVconnectivity
p2649
I3086
sVtries
p2650
I1824
sVplane
p2651
I643
sVlighting
p2652
I4284
sVff
p2653
I1825
sV*144ma
p2654
I1826
sVabsences
p2655
I2936
sVevaluations
p2656
I645
sVfl
p2657
I1827
sVresponse
p2658
I3089
sVa
p2659
I1828
sVgithub
p2660
I646
sVjiang
p2661
I647
sVcoat
p2662
I3090
sVregister
p2663
I648
sVbugs
p2664
I1831
sVanytime
p2665
I1832
sVblunder
p2666
I3091
sVmanagement/discussion
p2667
I3851
sVdiscussing
p2668
I4072
sVresponsibility
p2669
I3092
sVFile
p2670
I1833
sVpay
p2671
I2939
sVinline
p2672
I1834
sVreplied
p2673
I649
sVding
p2674
I4321
sVhelp
p2675
I1835
sVy.
p2676
I1836
sVdeveloped
p2677
I4288
sVadvised
p2678
I2701
sVsoon
p2679
I244
sVinstalled
p2680
I650
sVtop
p2681
I3142
sVheld
p2682
I1838
sVattitude
p2683
I651
sVpaper
p2684
I652
sVscott
p2685
I653
sVfilters
p2686
I3095
sVcommitted
p2687
I1839
sVits
p2688
I654
sVok.
p2689
I3096
sVkayvon
p2690
I3097
sVmessed
p2691
I3098
sV26
p2692
I3099
sVdueber
p2693
I3100
sVbut
p2694
I2211
sVmisinterpreting
p2695
I2975
sVprocessed
p2696
I4010
sVPDT
p2697
I4031
sVsolving
p2698
I1840
sV28
p2699
I3102
sVactually
p2700
I1841
sVsymptoms
p2701
I655
sVresearcher
p2702
I3731
sVabsence
p2703
I1842
sVElijah
p2704
I3104
sVthanatcha
p2705
I656
sVfeasible
p2706
I4596
sVstephen
p2707
I4294
sVsemesters
p2708
I2942
sV2.
p2709
I3105
sVmight
p2710
I4295
sValter
p2711
I4296
sVtentatively
p2712
I657
sVhurting
p2713
I3106
sVevening
p2714
I1843
sVreturn
p2715
I1675
sVdisrespectful
p2716
I3108
sVseverely
p2717
I3355
sVfood
p2718
I1844
sVpropose
p2719
I659
sVsatoko
p2720
I3314
sVhunter
p2721
I4298
sVawarding
p2722
I1845
sVslight
p2723
I3593
sVreflected
p2724
I1883
sVparse
p2725
I4103
sVolivia
p2726
I660
sVpermissible
p2727
I1846
sVfoot
p2728
I1847
sVsuffice
p2729
I4300
sVSenior
p2730
I1848
sVstruggling
p2731
I2943
sVassociation
p2732
I3111
sV*please
p2733
I1701
sV4pm
p2734
I4310
sVdesperately
p2735
I1849
sVregrades
p2736
I4303
sVstated
p2737
I3959
sVRobert
p2738
I4529
sVhook
p2739
I2498
sVcoping
p2740
I662
sValways
p2741
I663
sVdecimal
p2742
I1710
sVnauseous
p2743
I664
sVloosely
p2744
I665
sVify
p2745
I1852
sVdrake
p2746
I3113
sVcourses
p2747
I666
sVsomeone
p2748
I4104
sV-olivia
p2749
I4558
sVstopped
p2750
I1853
sVuploads
p2751
I667
sV2b
p2752
I3115
sVpositions
p2753
I2074
sVfound
p2754
I668
sVjoel
p2755
I3356
sVreferred
p2756
I1854
sVheavy
p2757
I1855
sVbreakdown
p2758
I491
sVeveryone
p2759
I3117
sVtilted
p2760
I4305
sVmental
p2761
I3118
sVhales
p2762
I1857
sVshort
p2763
I4286
sVhouse
p2764
I3119
sVenergy
p2765
I3120
sVhard
p2766
I3121
sVwaitlist.if
p2767
I3122
sVaccidentally
p2768
I2705
sVFiles
p2769
I4439
sVloopy
p2770
I4307
sVlab0
p2771
I1858
sVfewer
p2772
I909
sVsurly
p2773
I3124
sVoperation
p2774
I671
sVbeyond
p2775
I1859
sVevent
p2776
I1860
sVreally
p2777
I672
sVtry
p2778
I673
sVmissed
p2779
I674
sVp
p2780
I1478
sVproctored
p2781
I4309
sVrobert
p2782
I1863
sVsince
p2783
I1864
sVmeditating
p2784
I1865
sVprojected
p2785
I3125
sVpublish
p2786
I1866
sVcheckoff
p2787
I1926
sVmisses
p2788
I675
sVsafety
p2789
I1867
sV7
p2790
I1868
sVsamantha
p2791
I3549
sVReport
p2792
I676
sVoffline
p2793
I677
sVshortly
p2794
I3835
sVissue
p2795
I1870
sVClass
p2796
I678
sVwisconsin
p2797
I4313
sV2050
p2798
I1285
sV*definitely
p2799
I1871
sVroutine
p2800
I3506
sVfriday
p2801
I4314
sVTouchscreen
p2802
I4315
sVssage
p2803
I1872
sVlabs
p2804
I1873
sVscrambling
p2805
I2779
sVqualify
p2806
I679
sVincluded
p2807
I4201
sVimaging
p2808
I680
sVacorn
p2809
I681
sVimagine
p2810
I682
sVput
p2811
I1876
sVapproach
p2812
I3790
sVearliest
p2813
I1877
sVbeginning
p2814
I3135
sVguy
p2815
I1479
sV//piazza.com/class/jc8l5383lul10h
p2816
I3137
sVbumped
p2817
I683
sVfeb
p2818
I3303
sVunresolved
p2819
I1878
sVbenefits
p2820
I3139
sVthread
p2821
I4317
sVe.g
p2822
I1813
sVrecord
p2823
I4753
sVbrown
p2824
I4270
sVcomputers
p2825
I3140
sVpublished
p2826
I3053
sVstudents-click
p2827
I684
sVnoted
p2828
I4510
sV5a
p2829
I3847
sVexpecting
p2830
I1880
sVrayaee
p2831
I3606
sVcalcentralcurrent
p2832
I3141
sVreenroll
p2833
I3900
sVundergo
p2834
I1881
sVfallen
p2835
I4320
sVassign
p2836
I1882
sVarose
p2837
I4116
sV61c
p2838
I4272
sVunsatisfied
p2839
I3359
sVreversing
p2840
I685
sVdont
p2841
I3143
sVslipped
p2842
I686
sVupper
p2843
I1480
sVfeel
p2844
I4322
sVmistakenly
p2845
I3144
sVnumber
p2846
I688
sVinstances
p2847
I3145
sVpop
p2848
I4090
sVgeneral
p2849
I3009
sVdone
p2850
I3146
sVSuchir
p2851
I2501
sVchanging
p2852
I4117
sVmiss
p2853
I1884
sVpasses
p2854
I4325
sVguess
p2855
I689
sVheads
p2856
I690
sVscript
p2857
I4327
sVintroduction
p2858
I691
sVleading
p2859
I4328
sV5th
p2860
I3147
sVfollowup
p2861
I4095
sVleast
p2862
I3148
sVmayra
p2863
I4118
sVpinned
p2864
I1885
sVredistributing
p2865
I3149
sV180
p2866
I3150
sVassumption
p2867
I3151
sV186
p2868
I3152
sVexpand
p2869
I1886
sVcalculations
p2870
I692
sVdealing
p2871
I2710
sVmolecular
p2872
I693
sV187
p2873
I3153
sVwarmly
p2874
I694
sVstatement
p2875
I3154
sV*if*
p2876
I1888
sVUTF-8
p2877
I4552
sVhotel
p2878
I4334
sVpark
p2879
I3156
sVinterviewed
p2880
I695
sVimmediate
p2881
I696
sVluckily
p2882
I4335
sVpart
p2883
I3157
sVcs161
p2884
I3158
sVcs162
p2885
I3159
sVdoctors
p2886
I3160
sVfocusing
p2887
I697
sVweld
p2888
I2297
sVProblem
p2889
I3161
sVbelieve
p2890
I3162
sVunrealistic
p2891
I698
sVgrace
p2892
I699
sVvalerie
p2893
I4705
sVclarifying
p2894
I3164
sVking
p2895
I4337
sVkind
p2896
I4338
sVscheme
p2897
I1887
sVenrolment
p2898
I3989
sVkindly
p2899
I1889
sVlate/incorrect
p2900
I1890
sVgotten
p2901
I3166
sVanticipate
p2902
I1891
sVinstruction
p2903
I4340
sV-xingyou
p2904
I4341
sVgame
p2905
I2005
sVdetermined
p2906
I700
sV2020
p2907
I3167
sV2021
p2908
I3168
sVtoward
p2909
I1893
sVabysmally
p2910
I701
sVadversely
p2911
I4579
sVipynb
p2912
I2712
sVdeciding
p2913
I1894
sVwww.avast.com
p2914
I702
sV7a
p2915
I4343
sVcalculation
p2916
I4550
sVadrian
p2917
I4597
sValongside
p2918
I1895
sVinitially
p2919
I4383
sVLate
p2920
I1896
sVsubstantial
p2921
I1897
sVarjun
p2922
I4725
sVSelfgrade
p2923
I1977
sVGot
p2924
I1898
sVSwitching
p2925
I1899
sVoption
p2926
I4333
sV2pts
p2927
I3170
sVzero
p2928
I3744
sVdepending
p2929
I3171
sVClub
p2930
I703
sVself
p2931
I704
sVtrapped
p2932
I1901
sVcs61b
p2933
I705
sVcs61a
p2934
I706
sVwalk
p2935
I4669
sValso
p2936
I707
sVfind
p2937
I3187
sVinternal
p2938
I708
sVbuild
p2939
I3174
sVfinding
p2940
I4345
sVinterfered
p2941
I4346
sVPast
p2942
I4318
sVliz
p2943
I1903
sVrelief
p2944
I4121
sVHW
p2945
I3898
sVexperienced
p2946
I1904
sVdepartmental
p2947
I710
sVsahil
p2948
I3205
sVCourse
p2949
I3038
sVmoms
p2950
I3993
sVquote
p2951
I1905
sVmeasures
p2952
I2022
sVreach
p2953
I4351
sV~6
p2954
I3175
sVgio
p2955
I3894
sVunused
p2956
I712
sVmost
p2957
I3176
sV75
p2958
I4352
sVexperiences
p2959
I1906
sVplan
p2960
I713
sVsignificant
p2961
I3177
sVservices
p2962
I3178
sVaccepting
p2963
I714
sVextremely
p2964
I3179
sVapproved
p2965
I1907
sVgain
p2966
I4626
sVJessica
p2967
I915
sVregisters
p2968
I1916
sVvalue
p2969
I3534
sVunderstands
p2970
I716
sVreward
p2971
I4123
sVTaking
p2972
I3830
sVbug
p2973
I3608
sVmobile
p2974
I1908
sVclear
p2975
I1909
sVsometimes
p2976
I717
sVcover
p2977
I718
sV5-8
p2978
I1911
sVkl
p2979
I3180
sVelucidating
p2980
I719
sVselected/promoted
p2981
I4746
sVusual
p2982
I3557
sVphysics
p2983
I1914
sVnaively
p2984
I1915
sVrespect
p2985
I4671
sVwording
p2986
I720
sV854-1187
p2987
I4355
sVthomas
p2988
I3182
sVparticularly
p2989
I3183
sVravi
p2990
I4395
sVbelow.please
p2991
I2508
sVaccommodations
p2992
I721
sVvenkatesh
p2993
I2521
sVbookings
p2994
I722
sVreminder
p2995
I4110
sVsession
p2996
I723
sVnonrefundable
p2997
I3184
sVcarefully
p2998
I3185
sVhomework2
p2999
I1917
sVfine
p3000
I3186
sVoverwhelmed
p3001
I725
sVimpact
p3002
I726
sVcell
p3003
I2085
sVlinked
p3004
I4616
sVnervous
p3005
I3188
sVruin
p3006
I3189
sVheavily
p3007
I4712
sVLabs
p3008
I727
sVfailed
p3009
I728
sVflights
p3010
I1918
sVpretty
p3011
I1919
sVfactor
p3012
I729
sVoverride
p3013
I3190
sV8
p3014
I3191
sVcircle
p3015
I1920
sVproximity
p3016
I3558
sVmerged
p3017
I3192
sVbriefly
p3018
I4197
sVboarding
p3019
I3610
sVtouchscreen
p3020
I3193
sVhis
p3021
I4358
sVdominant
p3022
I1921
sVgoes
p3023
I3947
sVpermission
p3024
I3194
sVdependent
p3025
I731
sVluke
p3026
I3195
sV*also
p3027
I1923
sVexpress
p3028
I3196
sV2a
p3029
I3114
sVblank
p3030
I4324
sVemails
p3031
I4363
sVremedy
p3032
I732
sVb
p3033
I3165
sVpreparing
p3034
I733
sVclosely
p3035
I734
sVcompass
p3036
I735
sVhomeworks
p3037
I1927
sVduring
p3038
I1928
sVreceipts
p3039
I3448
sVMinutes
p3040
I736
sVhim
p3041
I2140
sVdistraction
p3042
I737
sVacommodations
p3043
I3313
sVresolve
p3044
I3199
sVsources
p3045
I2303
sVprofusely
p3046
I2983
sVcry
p3047
I738
sVremove
p3048
I3200
sVinvestigate
p3049
I4365
sVstored
p3050
I3561
sVcommon
p3051
I3201
sVrecommendations
p3052
I1930
sVDalton
p3053
I739
sVx
p3054
I1931
sVvincent
p3055
I4367
sVchandrima
p3056
I4368
sVwrote
p3057
I4369
sV\u2014
p3058
I2306
sVcheng_
p3059
I740
sVscanning
p3060
I1932
sVset
p3061
I741
sVcuz
p3062
I3270
sVthrowing
p3063
I1933
sVmind
p3064
I2513
sVprintout
p3065
I3204
sVrescheduling
p3066
I3366
sVwoke
p3067
I4407
sVsee
p3068
I742
sVjustification
p3069
I743
sVdumb
p3070
I4371
sVare
p3071
I4372
sVclose
p3072
I1934
sVangie
p3073
I1935
sVscreenshots
p3074
I4518
sVHomework
p3075
I3208
sVdefinitely
p3076
I4374
sVcrunching
p3077
I4375
sVproject
p3078
I105
sV#
p3079
I745
sVvitamins
p3080
I746
sVwoz
p3081
I1936
sVpictures
p3082
I1937
sVcurrently
p3083
I747
sVplease
p3084
I3209
sVups
p3085
I2393
sVcase
p3086
I4100
sVwon
p3087
I1938
sVvarious
p3088
I4377
sV11am
p3089
I4644
sVforked
p3090
I1939
sVprobably
p3091
I1940
sVjesica
p3092
I3251
sVnope
p3093
I748
sVsupposed
p3094
I4379
sVavailable
p3095
I749
sVkorea
p3096
I4380
sVtristan
p3097
I750
sVhardship
p3098
I751
sVintending
p3099
I1942
sVabirami
p3100
I1943
sVtouchscreens
p3101
I2702
sVattention
p3102
I4384
sVjane
p3103
I1612
sVEE47D
p3104
I4396
sVincident
p3105
I752
sVsucceed
p3106
I4385
sVfoothill
p3107
I3212
sVinterface
p3108
I753
sVLAB
p3109
I4507
sVboth
p3110
I1944
sVtime-sensitive
p3111
I3214
sVlast
p3112
I754
sVstrategy
p3113
I4402
sVrestaurant
p3114
I3215
sVpowers
p3115
I3216
sVredeem
p3116
I3278
sVbarely
p3117
I755
sValon
p3118
I3217
sVexplore
p3119
I4525
sVoh
p3120
I4154
sV11:15am-12:30pm
p3121
I3218
sVsensitive
p3122
I1945
sVconnection
p3123
I756
sVbecame
p3124
I4389
sV8am
p3125
I4390
sVfraternity
p3126
I2293
sVforgotten
p3127
I1946
sVpdf
p3128
I757
sVrisky
p3129
I4342
sVwhole
p3130
I758
sVfinds
p3131
I4392
sVrembert
p3132
I1947
sVFriday
p3133
I3565
sVconsume
p3134
I3219
sVoversleep
p3135
I2309
sVjeff
p3136
I1948
sVsimple
p3137
I3221
sV//sa..edu/sites/default/files/signed
p3138
I3566
sVDiscussion
p3139
I1949
sVothers
p3140
I3377
sVcorresponds
p3141
I759
sVcommunity
p3142
I760
sVpamphlet
p3143
I3222
sVsimply
p3144
I3223
sVenrollments
p3145
I3352
sVslots
p3146
I2329
sVthroughout
p3147
I3224
sVsahai
p3148
I2481
sVbackend
p3149
I3225
sVbolster
p3150
I4397
sVps
p3151
I2334
sVconsuming
p3152
I3226
sVclass-related
p3153
I4399
sVdescribed
p3154
I1951
sVfeels
p3155
I2128
sVStudents
p3156
I761
sVcreate
p3157
I3227
sVoverlook
p3158
I4400
sVconflicts
p3159
I4594
sVdue
p3160
I4401
sVderin
p3161
I2726
sVgeoffrey
p3162
I762
sVreduction
p3163
I4404
sVdescribes
p3164
I1952
sVensured
p3165
I3229
sVmaintenance
p3166
I1953
sVclashes
p3167
I4293
sVpile
p3168
I2961
sVpi
p3169
I4406
sVmeeting
p3170
I3230
sVempty
p3171
I1954
sV4
p3172
I2962
sVbudgeted
p3173
I1955
sVmisunderstood
p3174
I4606
sVflight
p3175
I4409
sVfire
p3176
I763
sVcaleb
p3177
I764
sVneha
p3178
I4410
sVwheeler
p3179
I765
sVgas
p3180
I3231
sVgreat
p3181
I766
sVappend
p3182
I3363
sVelse
p3183
I1956
sVmoment
p3184
I3252
sVfung
p3185
I767
sVawake
p3186
I768
sVcompromised
p3187
I1959
sVHW8
p3188
I1960
sVreceive
p3189
I769
sVstomache
p3190
I3951
sVHW4
p3191
I1962
sVHW5
p3192
I1963
sVHW2
p3193
I1964
sVHW3
p3194
I1965
sVHW0
p3195
I1966
sVHW1
p3196
I1967
sVpierce
p3197
I3234
sVhandling
p3198
I770
sVjoining
p3199
I3181
sVcalcentral
p3200
I1968
sVcomparator
p3201
I3235
sVtalking
p3202
I3749
sVsolid
p3203
I3236
sVenrollment
p3204
I771
sVexpanded
p3205
I772
sVfaqsubscribe
p3206
I4413
sVbudget
p3207
I773
sVinconvenience
p3208
I4350
sVsciencesuniversity
p3209
I4376
sVforgetting
p3210
I774
sVwhile
p3211
I1970
sVreplaced
p3212
I3238
sVpressed
p3213
I775
sVbehavior
p3214
I4415
sVerror
p3215
I776
sVfun
p3216
I3239
sVdominic
p3217
I777
sVmitchell
p3218
I1973
sVrobin
p3219
I778
sVIssues
p3220
I1975
sVpack
p3221
I1976
sVIncorrect
p3222
I3241
sVscheduled
p3223
I4135
sVconcurrently
p3224
I4416
sVlarger
p3225
I4526
sVhoping
p3226
I779
sVflorida
p3227
I3687
sVguilty
p3228
I3953
sVcalculator
p3229
I780
sVxiao
p3230
I781
sVrip
p3231
I4417
sVsameera
p3232
I1978
sVdisappointing
p3233
I4418
sVitself
p3234
I3242
sValta
p3235
I2732
sVready
p3236
I1979
sVlimit
p3237
I3243
sVdifferent
p3238
I2935
sVaches
p3239
I3244
sVmins
p3240
I2518
sVanymore
p3241
I1980
sVgrant
p3242
I1981
sVmigraine
p3243
I3245
sVseiya
p3244
I3246
sVread
p3245
I1703
sVemphasize
p3246
I3247
sVmodification
p3247
I1982
sVresulting
p3248
I784
sVshah
p3249
I1983
sVDeclining
p3250
I1984
sVexams
p3251
I3955
sVdevelopment
p3252
I3249
sVallyson
p3253
I1985
sVAbout
p3254
I570
sVused
p3255
I1986
sVclassmates
p3256
I1987
sVassignment
p3257
I3250
sVassessment
p3258
I3673
sVyesterday
p3259
I86
sVattempted
p3260
I3897
sValert
p3261
I89
sVviewing
p3262
I785
sVuses
p3263
I1989
sVpurpose
p3264
I3253
sVClobber
p3265
I4424
sVpimenta
p3266
I786
sV11-2
p3267
I4362
sVstack
p3268
I787
sVrecent
p3269
I788
sVdark
p3270
I507
sVexpend
p3271
I790
sVtask
p3272
I3254
sVherewith
p3273
I1990
sV*6**pm
p3274
I3255
sVb.s
p3275
I4429
sVmakes
p3276
I791
sVcodeine
p3277
I3256
sVspent
p3278
I3257
sVobviously
p3279
I1991
sVperson
p3280
I793
sVfeces
p3281
I794
sVrosters
p3282
I795
sVgsi
p3283
I1993
sVentry
p3284
I3258
sVb.a
p3285
I4433
sVchemistry
p3286
I3259
sVleong
p3287
I796
sVcheng_forget
p3288
I128
sVmon
p3289
I2965
sVpollen
p3290
I4435
sVabilities
p3291
I4436
sVscheduler
p3292
I4137
sVfrom
p3293
I3262
sVcomfortability
p3294
I2168
sVresolves
p3295
I3579
sVremoved
p3296
I3902
sVexaminations
p3297
I3263
sVreviewed
p3298
I1994
sVtest_labgrade
p3299
I1995
sVbancroft
p3300
I4437
sVtennis
p3301
I4267
sVquestions
p3302
I4438
sVusing
p3303
I1706
sVregardless
p3304
I1495
sValternative
p3305
I3264
sV35897
p3306
I4757
sVdishonesty
p3307
I3265
sVinjuries
p3308
I3266
sVrundown
p3309
I166
sVintersection
p3310
I2315
sVhelping
p3311
I4488
sV$
p3312
I1997
sVreaders
p3313
I174
sVfiancee
p3314
I1998
sVadvisers
p3315
I4441
sVadmission
p3316
I800
sValternate
p3317
I3269
sVguaranteed
p3318
I1999
sVfitting
p3319
I2522
sVee-
p3320
I2000
sVsource
p3321
I3271
sVparents
p3322
I801
sVlocation
p3323
I802
sVcrying
p3324
I803
sVmonday
p3325
I2330
sVinput
p3326
I804
sVDEADLINE
p3327
I3465
sVhonor
p3328
I3383
sVsubmissions
p3329
I805
sVremaining
p3330
I2001
sVsurprised
p3331
I806
sVhate
p3332
I3636
sVOn
p3333
I807
sVmarch
p3334
I2003
sVemergency
p3335
I808
sVformat
p3336
I809
sVDid
p3337
I3274
sVbig
p3338
I3275
sVcouple
p3339
I199
sVinstructors
p3340
I810
sVfremont
p3341
I4443
sVmatters
p3342
I3277
sVsuffering
p3343
I811
sVEnrolled
p3344
I2006
sVbit
p3345
I3279
sVprojects
p3346
I812
sVformal
p3347
I813
sVknock
p3348
I3280
sVpertinent
p3349
I814
sVd
p3350
I815
sVsubmission
p3351
I2008
sVfollows
p3352
I3282
sVsignal
p3353
I2009
sVresorted
p3354
I2010
sVflexibility
p3355
I2740
sVassociate
p3356
I3723
sV3032756079.
p3357
I3754
sVignore
p3358
I2646
sVpillai
p3359
I2011
sVcontinue
p3360
I229
sVUsing
p3361
I3991
sViPython
p3362
I817
sVweiner
p3363
I2012
sVsketch
p3364
I2013
sVgoogle
p3365
I3283
sVmethods
p3366
I818
sVproctoring
p3367
I819
sVabsolutely
p3368
I3285
sVspring
p3369
I248
sV*this
p3370
I1500
sVsome
p3371
I2015
sVback
p3372
I3287
sVa-f.
p3373
I4446
sVone-way
p3374
I2016
sVtowards
p3375
I2017
sVexamples
p3376
I3288
sV28th
p3377
I2018
sVlydia
p3378
I3317
sVcurious
p3379
I820
sVheathcare
p3380
I2019
sVm.rivera
p3381
I821
sVInjured
p3382
I822
sVdelivered
p3383
I2020
sVsherman
p3384
I4052
sVand/or
p3385
I823
sVsharma
p3386
I824
sVcontacts
p3387
I3292
sVredo
p3388
I4531
sVdecision
p3389
I3293
sVthough
p3390
I3755
sVper
p3391
I3294
sVAttacks
p3392
I4348
sVFung
p3393
I4451
sVconnecting
p3394
I3295
sV7.
p3395
I4349
sVanne
p3396
I4453
sVHW01
p3397
I4262
sVEE16
p3398
I825
sVbe
p3399
I826
sVbg
p3400
I827
sVeating
p3401
I2023
sV\u30c4
p3402
I828
sVbb
p3403
I829
sVremembered
p3404
I3299
sV301
p3405
I3300
sV17.92
p3406
I306
sVpinging
p3407
I883
sVcontinuing
p3408
I3301
sVTimes
p3409
I4456
sVfeelings
p3410
I3666
sV*section*
p3411
I2025
sVfee
p3412
I4533
sVPolicies
p3413
I3302
sVbs
p3414
I830
sVtidal
p3415
I831
sVrelating
p3416
I832
sVsmitha
p3417
I833
sVby
p3418
I834
sVhandled
p3419
I4458
sVfaith
p3420
I2026
sVanything
p3421
I835
sVconstraint
p3422
I3305
sV-amp
p3423
I339
sVcompleting
p3424
I4459
sVordeal
p3425
I4460
sVfavor
p3426
I4655
sVgraduation
p3427
I3306
sVdeserves
p3428
I837
sVensuring
p3429
I4681
sVregular
p3430
I2525
sVextensions
p3431
I3308
sVmessaging
p3432
I2027
sVsabharwal
p3433
I3309
sVblock
p3434
I2028
sVflying
p3435
I2660
sVGraduating
p3436
I2029
sVseeing
p3437
I2030
sVhometown
p3438
I838
sVinto
p3439
I839
sVwithin
p3440
I2031
sVsatisfactory
p3441
I3310
sVmartinez
p3442
I3311
sVresonated
p3443
I121
sVappropriate
p3444
I840
sVbecause
p3445
I4723
sVselected
p3446
I3651
sVtadj
p3447
I2032
sVdustin
p3448
I4574
sVShah
p3449
I841
sVcho
p3450
I3390
sVclick
p3451
I3172
sV5947
p3452
I4464
sVstatistics
p3453
I2033
sVstory
p3454
I4326
sVnoahmjacobs.com
p3455
I2034
sVsona
p3456
I4218
sVretrieving
p3457
I842
sVspending
p3458
I843
sVapparently
p3459
I3470
sVplacing
p3460
I2035
sVquestion
p3461
I4467
sVhandles
p3462
I3961
sVsubmit
p3463
I844
sVcustom
p3464
I845
sVsyllabus
p3465
I2036
sVinexcusable
p3466
I3756
sVforward
p3467
I415
sV:
p3468
I847
sVsections
p3469
I4470
sVSection
p3470
I4724
sVtaghizadehasl*
p3471
I1508
sVfiles
p3472
I4471
sVconfessing
p3473
I2037
sVRegarding
p3474
I848
sV3032951846
p3475
I3206
sVhttps
p3476
I1509
sVlabs/discussions
p3477
I849
sVjewish
p3478
I850
sVregistered
p3479
I2038
sVmitigate
p3480
I851
sVsiqi
p3481
I3316
sVmc
p3482
I3680
sV\u2014noah
p3483
I852
sVlink
p3484
I853
sVhail
p3485
I3584
sVsick
p3486
I4718
sVhopes
p3487
I3318
sVdon
p3488
I2527
sVline
p3489
I854
sVpain
p3490
I2643
sVconsiderable
p3491
I855
sVposted
p3492
I856
sVinfo
p3493
I2040
sVzhu
p3494
I3320
sVOffice
p3495
I857
sVrestarted
p3496
I2042
sVcircuits
p3497
I2043
sVrequesting
p3498
I3321
sVup
p3499
I858
sVus
p3500
I859
sVe-copy
p3501
I860
sVum
p3502
I861
sV're
p3503
I3324
sVverification
p3504
I862
sVparticipants
p3505
I3126
sVexport
p3506
I4726
sVug
p3507
I863
sVua
p3508
I864
sVprofessor
p3509
I125
sVuc
p3510
I866
sVuber
p3511
I2045
sVsort
p3512
I4539
sVv
p3513
I4266
sVassociated
p3514
I4478
sVdefined
p3515
I867
sV3/14
p3516
I868
sVlulu
p3517
I1295
sVchan
p3518
I869
sVdoesn
p3519
I2046
sVTo
p3520
I2047
sVengineering
p3521
I485
sVdiverse
p3522
I870
sVchat
p3523
I871
sVcafe
p3524
I3327
sVraluca
p3525
I4481
sVm.
p3526
I3671
sVcodes
p3527
I872
sVlogistically
p3528
I873
sVMat
p3529
I3330
sVexcused
p3530
I3331
sVtentative
p3531
I4482
sVfixing
p3532
I874
sVviolate
p3533
I3637
sVpat
p3534
I3088
sVpart-time
p3535
I1912
sVinvalid
p3536
I875
sVmatching
p3537
I2979
sVpreventing
p3538
I876
sVclub
p3539
I1511
sVError
p3540
I4176
sVyang
p3541
I3758
sVelectrical
p3542
I2049
sVStudent
p3543
I3334
sVpronouns
p3544
I2050
sValternates
p3545
I2980
sVwishing
p3546
I2787
sVrevision
p3547
I878
sVwished
p3548
I4503
sVexplaining
p3549
I3335
sVlatex
p3550
I4057
sVwrongly
p3551
I879
sVcalculating
p3552
I2052
sVprovided
p3553
I4147
sVases
p3554
I2053
sVproblems
p3555
I4487
sVvisits
p3556
I2054
sVtimesheet
p3557
I2112
sVwilliam
p3558
I2055
sVgenerated
p3559
I2990
sVarticles
p3560
I4581
sVallowing
p3561
I4490
sVCindy
p3562
I3338
sVroey
p3563
I3339
sV7-10pm
p3564
I2056
sVjeremy
p3565
I4729
sVsong
p3566
I4221
sVswaps
p3567
I4148
sVago
p3568
I880
sVge
p3569
I2064
sVtexted
p3570
I881
sVpractically
p3571
I2059
sVending
p3572
I2534
sVhw8
p3573
I4182
sVage
p3574
I882
sVrequired
p3575
I2060
sVresolving
p3576
I1755
sVwalked
p3577
I884
sV104.
p3578
I4354
sVimpatient
p3579
I4491
sVcircuit
p3580
I4319
sVweights
p3581
I4492
sVcame
p3582
I885
sVenrolled
p3583
I886
sVwalker
p3584
I887
sVkristen
p3585
I2532
sVrequires
p3586
I2062
sVhaving
p3587
I888
sVinitiating
p3588
I3341
sVonce
p3589
I4495
sVcode
p3590
I889
sVpartial
p3591
I890
sVsaying
p3592
I891
sVscratch
p3593
I892
sVSelf
p3594
I2063
sVcynthia
p3595
I3342
sVresults
p3596
I893
sVproceed
p3597
I4256
sVexisting
p3598
I894
sVhelped
p3599
I1812
sVnotify
p3600
I4323
sVmt1/2/final
p3601
I2065
sV408.916.6134
p3602
I895
sVcs-intended
p3603
I2115
sVgo
p3604
I2066
sVpreferable
p3605
I3343
sVcases
p3606
I3969
sVissues
p3607
I4498
sVseemed
p3608
I896
sVaneesh
p3609
I3344
sVcontacted
p3610
I3761
sVAttending
p3611
I4499
sVconcerned
p3612
I897
sVyoung
p3613
I898
sVsend
p3614
I899
sVarie
p3615
I2067
sVintensive
p3616
I3345
sVlower
p3617
I4428
sVciting
p3618
I900
sVhelps
p3619
I3347
sVlate
p3620
I3103
sVNot
p3621
I2068
sVdiscretion
p3622
I3589
sVfatal
p3623
I3348
sVfairness
p3624
I3647
sVsent
p3625
I624
sVuploaded
p3626
I903
sVconfirmation
p3627
I4502
sVproctor
p3628
I3350
sVoutside
p3629
I4084
sVDeficient
p3630
I904
sVcontinues
p3631
I905
sVconditions
p3632
I1941
sVwave
p3633
I2069
sVwishes
p3634
I4504
sVputting
p3635
I3351
sVchooses
p3636
I2658
sVcellular
p3637
I2070
sVtelling
p3638
I2071
sVsurgeon
p3639
I3353
sVsyntax
p3640
I906
sVmatrices
p3641
I2072
sVarrange
p3642
I3354
sVtimely
p3643
I907
sVentire
p3644
I658
sVexcruciating
p3645
I2073
sVexperiencing
p3646
I908
sVbutton
p3647
I2075
sVf
p3648
I3395
sVmichael
p3649
I2076
sVattempts
p3650
I2535
sVme104
p3651
I670
sVleader
p3652
I4731
sVanxious
p3653
I910
sVassignments
p3654
I2077
sVrace
p3655
I911
sV*francis
p3656
I2333
sVdealt
p3657
I3132
sVdeleting
p3658
I2078
sVenforce
p3659
I2079
sVrelated
p3660
I4587
sV8:30am
p3661
I2080
sVlogistics
p3662
I912
sVComplication
p3663
I3360
sVsmaller
p3664
I4512
sV*no
p3665
I3304
sVcarter
p3666
I2081
sVtheir
p3667
I4603
sVbleeding
p3668
I3361
sVqueer
p3669
I3765
sVStatus
p3670
I3387
sVjump
p3671
I2082
sVtoday
p3672
I3965
sVtraveling
p3673
I4513
sVdownload
p3674
I2083
sVSections
p3675
I4514
sVhonors
p3676
I2084
sVdepression
p3677
I709
sVcid=188
p3678
I3364
sVgraduating
p3679
I914
sVhourly
p3680
I4516
sVturn
p3681
I4018
sVmaddie
p3682
I3346
sV140.
p3683
I715
sVrate
p3684
I4234
sVms.
p3685
I3972
sVgiving
p3686
I3365
sVtuesdays
p3687
I3552
sV202_12_18.pdf
p3688
I2984
sVlabeled
p3689
I1515
sVinconveniences
p3690
I724
sVhenceforth
p3691
I916
sVwaiting
p3692
I4520
sVbaihao
p3693
I2086
sVcao
p3694
I1516
sV;
p3695
I2087
sVexercise
p3696
I3369
sVwednesdays
p3697
I3707
sVbody
p3698
I3370
sVWaitlist
p3699
I3927
sVlec
p3700
I917
sVled
p3701
I918
sVlee
p3702
I919
sVdegree
p3703
I4523
sVexchange
p3704
I3372
sVrespectively
p3705
I920
sVwaller
p3706
I2752
sVintegrity
p3707
I2400
sVleo
p3708
I921
sVfollowing
p3709
I2088
sVprofessordepartment
p3710
I3374
sVlet
p3711
I922
sVsamridh
p3712
I3376
sVmeet
p3713
I2117
sVconsideration
p3714
I923
sVbuarque
p3715
I2090
sVextreme
p3716
I3378
sVshabbat
p3717
I924
sVarrive
p3718
I2754
sVwesley
p3719
I4733
sVtechnical
p3720
I925
sVinvolved
p3721
I926
sV267-1319
p3722
I927
sV30
p3723
I3379
sVexcusal
p3724
I2986
sVleaving
p3725
I4527
sVsurvey
p3726
I928
sV3.
p3727
I3380
sVsituations
p3728
I3767
sVchang
p3729
I2094
sVanaga
p3730
I3382
sVstephanie
p3731
I929
sV26861026
p3732
I792
sVStaff
p3733
I930
sVme.thanks
p3734
I2095
sVcid=77
p3735
I4021
sVforesee
p3736
I2096
sVaddresses
p3737
I2097
sVclark
p3738
I2098
sVdanger
p3739
I2099
sVdwinelle
p3740
I2100
sVaps
p3741
I4528
sVcharge
p3742
I3929
sVcrazy
p3743
I2757
sVprivate
p3744
I3384
sVexpect
p3745
I4308
sVedit
p3746
I4583
sVaddressed
p3747
I2102
sVdecrease
p3748
I3385
sVnames
p3749
I3386
sVapply
p3750
I4530
sVtools
p3751
I931
sVstanding
p3752
I932
sVpenalty
p3753
I2103
sVuse
p3754
I4532
sVrefers
p3755
I2987
sV***Important
p3756
I933
sVzip
p3757
I934
sV&
p3758
I4535
sVremains
p3759
I3307
sV8-11am
p3760
I3388
sV6:40am
p3761
I3389
sVconners
p3762
I2104
sVnext
p3763
I935
sVfew
p3764
I4536
sVdoubt
p3765
I936
sVexamination
p3766
I4537
sVavailability
p3767
I3766
sVexpanding
p3768
I4538
sVtiming
p3769
I3493
sVthemselves
p3770
I3391
sVjonathan
p3771
I2105
sVhistorically
p3772
I2106
sVreflects
p3773
I2107
sVgivens
p3774
I937
sV1/3
p3775
I2108
sV*hw
p3776
I3770
sVupcoming
p3777
I3392
sVcomparison
p3778
I1725
sVstarted
p3779
I2109
sVbecomes
p3780
I2110
sV.ipynb
p3781
I2111
sVoccurred
p3782
I938
sVvisibility
p3783
I2113
sV3032709253
p3784
I4469
sVsore
p3785
I4541
sVconnie
p3786
I4542
sVinformally
p3787
I3393
sVpriya
p3788
I2114
sVgladly
p3789
I939
sVfolder
p3790
I2539
sVstarter
p3791
I2116
sVmajority
p3792
I3173
sVaccount
p3793
I3394
sVbhavna
p3794
I940
sVmidterm
p3795
I3357
sVthis
p3796
I941
sVchallenge
p3797
I942
sVwhen
p3798
I3909
sVFinals
p3799
I3772
sVcolumn
p3800
I4544
sVanywhere
p3801
I4545
sVobvious
p3802
I3396
sVdawnia
p3803
I4357
sVof
p3804
I4155
sVfulfill
p3805
I943
sVdrops
p3806
I2118
sVugsi
p3807
I2119
sVdisabilities
p3808
I3397
sVgaussian
p3809
I4748
sVproof
p3810
I4546
sVcontrol
p3811
I2121
sVwearing
p3812
I2540
sV*freshman
p3813
I4156
sVreserved
p3814
I3400
sVquickstart
p3815
I4548
sVlinks
p3816
I2122
sV5173.
p3817
I4465
sVprocess
p3818
I944
sVraj
p3819
I3748
sVpurposes
p3820
I945
sVpieces
p3821
I946
sVhigh
p3822
I947
sVeffectively
p3823
I3401
sVapplication
p3824
I2048
sVsomething
p3825
I3398
sVtab
p3826
I4553
sVPolicy
p3827
I948
sVhit
p3828
I2123
sVCopied
p3829
I949
sVcc-ing
p3830
I2124
sVtai
p3831
I4554
sV3032777425
p3832
I3402
sVangeles
p3833
I2125
sVeducational
p3834
I950
sVcounting
p3835
I3975
sVmid-term
p3836
I4556
sVsit
p3837
I4557
sVholds
p3838
I3403
sVdelay
p3839
I951
sVperumpail
p3840
I1922
sVswear
p3841
I4737
sVbrian
p3842
I4559
sVattachment
p3843
I3404
sVsid
p3844
I4561
sVinstead
p3845
I4562
sVimmoral
p3846
I2127
sVsolidify
p3847
I2991
sVprofile
p3848
I3405
sVsis
p3849
I4555
sVadministrator
p3850
I4564
sValicia
p3851
I4360
sVblocks
p3852
I952
sVattend
p3853
I4565
sVwaitlist
p3854
I992
sVwatch
p3855
I3774
sVRequest
p3856
I953
sVfactored
p3857
I3406
sVbothered
p3858
I3407
sVQ
p3859
I954
sVpermanent
p3860
I4571
sVnotebook
p3861
I956
sVsubmitted*
p3862
I957
sVdemonstrating
p3863
I958
sVshare
p3864
I3072
sVfits
p3865
I959
sVcheaper
p3866
I3197
sV*there
p3867
I4505
sVefficiently
p3868
I960
sVstatus
p3869
I4112
sVrealized
p3870
I961
sVlines
p3871
I3408
sVcorrespond
p3872
I1018
sVredundant
p3873
I962
sVOne
p3874
I963
sV9am
p3875
I3410
sVclaire
p3876
I2129
sVhonestly
p3877
I4566
sVallow
p3878
I964
sVchien
p3879
I3412
sVop
p3880
I4160
sVcounted
p3881
I965
sVaarushi
p3882
I3413
sVlongest
p3883
I4361
sV3/7
p3884
I1925
sVmove
p3885
I966
sVencouraged
p3886
I4078
sV-410-2643
p3887
I4652
sVattacks
p3888
I3879
sV2017.
p3889
I3415
sVincluding
p3890
I2131
sVdirects
p3891
I967
sVgender
p3892
I3116
sVmentioned
p3893
I2132
sVmerchia
p3894
I2339
sVlazarovits
p3895
I4097
sVFinal
p3896
I2133
sVbunch
p3897
I3416
sVperfect
p3898
I968
sVchemical
p3899
I2765
sVdu
p3900
I1324
sVRecently
p3901
I2134
sVEmergency
p3902
I969
sVlocated
p3903
I2126
sVchosen
p3904
I970
sVguerrilla
p3905
I2137
sVnotebooks
p3906
I2138
sV*not
p3907
I2139
sVcommute
p3908
I3646
sVli
p3909
I1071
sVmeantime
p3910
I971
sVwhether
p3911
I4752
sVdecal
p3912
I972
sVwilling
p3913
I1073
sV2019
p3914
I973
sV2018
p3915
I974
sVunites
p3916
I4560
sV2017
p3917
I975
sV2016
p3918
I976
sVdefining
p3919
I4575
sV<
p3920
I3423
sVpending
p3921
I4576
sVtypos
p3922
I4364
sVsarth
p3923
I4577
sVexplanation
p3924
I3458
sVSlack
p3925
I1090
sVpython
p3926
I977
sVoutlined
p3927
I978
sVpractice
p3928
I3548
sVdai
p3929
I3425
sVflew
p3930
I3550
sVmention
p3931
I3426
sVcutting
p3932
I3427
sVExtensions
p3933
I979
sVee16a
p3934
I711
sVee16b
p3935
I2141
sVhands
p3936
I2142
sVkindness
p3937
I3428
sVrealize
p3938
I980
sVstitches
p3939
I4463
sVit/would
p3940
I3573
sVregular-time
p3941
I981
sV//inst.eecs..edu/~/fa17/
p3942
I4582
sVgrades*
p3943
I3601
sVmastery
p3944
I2144
sVOpportunity
p3945
I3432
sVuniversity
p3946
I2145
sVEnrolling
p3947
I982
sVlona
p3948
I4466
sVmerge
p3949
I1116
sVmorris
p3950
I3434
sVweather
p3951
I4739
sVfollow
p3952
I4211
sVfields
p3953
I2544
sVdisregard
p3954
I3435
sVmodi
p3955
I2146
sVnationals
p3956
I2147
sV|
p3957
I2148
sVconstraints
p3958
I3436
sVseniors
p3959
I2149
sVusc
p3960
I4534
sVtot
p3961
I3737
sVFrom
p3962
I3437
sVattachments
p3963
I2150
sVzhining
p3964
I3827
sVdoing
p3965
I985
sVglobe
p3966
I2151
sVMake-up
p3967
I2994
sVstaying
p3968
I2769
sVpantry
p3969
I3438
sValejandro
p3970
I986
sVDropping
p3971
I987
sVCheng
p3972
I988
sVmeasure
p3973
I2152
sVour
p3974
I4588
sVhe/she
p3975
I3793
sVspecial
p3976
I2153
sVout
p3977
I4589
sVcategory
p3978
I4590
sVmatt
p3979
I3439
sVlastly
p3980
I4164
sVmatrix
p3981
I989
sV'
p3982
I990
sVnon-class
p3983
I1167
sVVery
p3984
I991
sVconfess
p3985
I2154
sVMaterial
p3986
I1171
sVtranscript
p3987
I3478
sVbad
p3988
I2546
sVmay
p3989
I2773
sVtime.
p3990
I2155
sV666-5283
p3991
I2156
sVtime*
p3992
I2157
sVexporting
p3993
I4591
sVthriving
p3994
I2158
sVTrying
p3995
I993
sVcause
p3996
I2159
sVmath
p3997
I1182
sV2019*
p3998
I2160
sVHW10
p3999
I1736
sVinputted
p4000
I2161
sVmullally
p4001
I2162
sVjessica
p4002
I3443
sVfrank
p4003
I3444
sVcc'ed
p4004
I3445
sVUPDATE
p4005
I3446
sVpromptly
p4006
I4592
sVclarify
p4007
I3447
sVcompletely
p4008
I2163
sVgrading
p4009
I2647
sVadvisor
p4010
I3664
sVearly
p4011
I1704
sVbusiness
p4012
I1718
sVforwarded
p4013
I1738
sVdays
p4014
I3726
sVprepare
p4015
I1739
sVg
p4016
I4595
sVGrade
p4017
I3449
sVdetermining
p4018
I2165
sVcould
p4019
I997
sVask
p4020
I2166
sVdavid
p4021
I998
sVlength
p4022
I999
sVhindering
p4023
I1000
sVremoving
p4024
I1740
sVhence
p4025
I4598
sVchills
p4026
I1002
sVseok
p4027
I3451
sVprospective
p4028
I2169
sVthere
p4029
I4166
sVswapped
p4030
I2170
sVnotes
p4031
I4506
sVconfuse
p4032
I2171
sVbootcamp
p4033
I2172
sVimproving
p4034
I2173
sVfloormates
p4035
I2174
sVAttendance
p4036
I3203
sVConnecting
p4037
I1004
sVVisits
p4038
I2996
sVlagging
p4039
I3454
sVmandatory
p4040
I153
sVawarded
p4041
I3603
sVquality
p4042
I2175
sVmyacademics
p4043
I3783
sVself-grading
p4044
I2176
sVmanagement
p4045
I2177
sVsadly
p4046
I3456
sVreference
p4047
I2551
sVstart
p4048
I1743
sVordering
p4049
I1006
sVguys
p4050
I2776
sVassure
p4051
I3515
sVsystem
p4052
I1007
sVunspecified
p4053
I3457
sVpriority
p4054
I4602
sVclarified
p4055
I156
sVattack
p4056
I2180
sVwithout
p4057
I4120
sVbhasin
p4058
I2181
sVASE
p4059
I2182
sVperfectly
p4060
I2183
sVfinal
p4061
I2184
sVpainful
p4062
I1008
sVo'reilly
p4063
I1009
sVconvert
p4064
I2091
sV2-3
p4065
I2185
sVco-op
p4066
I1010
sVstomach
p4067
I1011
sVLetter
p4068
I4168
sVinspect
p4069
I4150
sV2-5
p4070
I2186
sVgotcha
p4071
I1012
sVlou
p4072
I1746
sVrsa
p4073
I2188
sVlists
p4074
I2189
sV3/10/18
p4075
I3315
sVslides
p4076
I4608
sVbiggest
p4077
I3604
sVregards
p4078
I4609
sVtoo
p4079
I3739
sVyoudong
p4080
I4610
sVhaven
p4081
I1013
sVupdating
p4082
I2190
sV6:40pm
p4083
I2191
sVloved
p4084
I3460
sVconfirm/find
p4085
I3276
sVslack
p4086
I3461
sVbother
p4087
I1014
sVyoutube
p4088
I2061
sVbed
p4089
I2192
sVclaim
p4090
I2756
sVcompensation
p4091
I3462
sVtransgression
p4092
I2193
sVhw6
p4093
I4183
sVmaybe
p4094
I2781
sVvisited
p4095
I1345
sVnegatively
p4096
I1015
sVproviding
p4097
I2195
sVmisunderstand
p4098
I1016
sVre-distribute
p4099
I1017
sV1.5
p4100
I3803
sVlateness
p4101
I4613
sVpalmer
p4102
I2722
sV189
p4103
I3155
sVjoe
p4104
I4663
sVre-do
p4105
I4747
sVreassurance
p4106
I4472
sVlin
p4107
I1900
sVtonight
p4108
I1019
sVfail
p4109
I158
sVpip
p4110
I3624
sVmornings
p4111
I3000
sVp.m
p4112
I617
sV*i
p4113
I1020
sVLogisitics
p4114
I1021
sVari
p4115
I4373
sVneed
p4116
I2200
sVfacing
p4117
I2972
sVparikh
p4118
I3333
sVborder
p4119
I2201
sVclearly
p4120
I1373
sVpeers
p4121
I3757
sVdocuments
p4122
I1022
sVlightweight
p4123
I4691
sVsmallest
p4124
I3210
sVmin
p4125
I3471
sVstudying
p4126
I1023
sVcs.berkeley.edu.want
p4127
I2202
sVable
p4128
I2203
sVchief
p4129
I3411
sVmechanism
p4130
I1024
sVcontact
p4131
I1387
sVinstance
p4132
I2204
sVrelatives
p4133
I2205
sVconcerns
p4134
I3473
sVunnecessarily
p4135
I3233
sVwhich
p4136
I4618
sVramping
p4137
I3474
sVlinda
p4138
I1025
sVmis
p4139
I3475
sVlily
p4140
I1026
sVReader
p4141
I4254
sVdebugging
p4142
I3169
sVlectures
p4143
I2206
sVunless
p4144
I3476
sVagenda
p4145
I2130
sVcentre
p4146
I4620
sVwho
p4147
I4621
sVplugging
p4148
I2207
sVjodie
p4149
I1829
sV0/1
p4150
I2208
sVintentions
p4151
I2209
sVResubmission
p4152
I2210
sVAdvertising
p4153
I1027
sV**
p4154
I1028
sVrepresentation
p4155
I3984
sVdevice
p4156
I1029
sVvish
p4157
I1421
sVsally
p4158
I1424
sVpayment
p4159
I3479
sVcoordinator
p4160
I4479
sVvolume
p4161
I4749
sVdisrespecting
p4162
I4567
sVCalCentral
p4163
I2213
sVconsequences
p4164
I2214
sVnobody
p4165
I3459
sVupset
p4166
I2215
sVface
p4167
I1030
sVlooked
p4168
I4624
sVmichel
p4169
I1532
sVmechanical
p4170
I1031
sVawwal
p4171
I161
sVtypical
p4172
I4625
sVnormally
p4173
I3482
sVPermission
p4174
I3440
sVfact
p4175
I1032
sV50
p4176
I3855
sVimpression
p4177
I2216
sVemerging
p4178
I2217
sVselection
p4179
I3483
sVsuper
p4180
I2653
sVviolation
p4181
I2218
sVtext
p4182
I3484
sVagreed
p4183
I4627
sVsanghvi
p4184
I2219
sVterminate
p4185
I1471
sVanyway
p4186
I2220
sVcentralized
p4187
I1033
sVbrother
p4188
I3486
sVbring
p4189
I1034
sVplanning
p4190
I4628
sVchuang
p4191
I4629
sVrubric
p4192
I1035
sVdorothy
p4193
I4630
sVrough
p4194
I1036
sVlonger
p4195
I3916
sVtrivial
p4196
I1037
sVMath
p4197
I2221
sVstaff
p4198
I3487
sVopenings
p4199
I1396
sVq3
p4200
I4631
sV5pm
p4201
I1489
sVbased
p4202
I2223
sVknowledge
p4203
I3488
sVhadn
p4204
I2224
sV(
p4205
I2225
sVprint
p4206
I3127
sVcredited
p4207
I2226
sVUpdate
p4208
I1038
sVshould
p4209
I1039
sVjan
p4210
I1040
sVFailure
p4211
I4634
sVscore
p4212
I162
sVcandidates
p4213
I4635
sVMon
p4214
I3490
sVemployee
p4215
I2228
sVre-grade
p4216
I4636
sVjae
p4217
I1041
sVpointed
p4218
I2786
sVhope
p4219
I1042
sVdemonstrated
p4220
I4509
sVexchanged
p4221
I1043
sVjacqueline
p4222
I1044
sVetcheverry
p4223
I4568
sVhandle
p4224
I1045
sV5-8pm
p4225
I1046
sVmeans
p4226
I1047
sVfamiliar
p4227
I1048
sVoverall
p4228
I2231
sVhire
p4229
I1752
sVlikely
p4230
I2397
sV122
p4231
I2232
sVones
p4232
I4640
sV124
p4233
I2233
sV125
p4234
I2234
sVclubs
p4235
I3865
sVfamilial
p4236
I1049
sVwebcast
p4237
I1050
sVwise
p4238
I3611
sVsinus
p4239
I1051
sVprocedures
p4240
I2236
sVtbd
p4241
I2237
sVquiet
p4242
I4088
sVJan
p4243
I1538
sVstitching
p4244
I4642
sVjash
p4245
I2238
sVbrain
p4246
I1539
sVh
p4247
I1052
sVteams
p4248
I3495
sVfelipe
p4249
I2241
sVstuff
p4250
I1053
sVBartolome
p4251
I1054
sVshe
p4252
I2242
sVRegistration
p4253
I1055
sVshi
p4254
I2243
sVcatch
p4255
I3814
sVfixed
p4256
I3496
sVgrad
p4257
I2244
sVlooks
p4258
I4569
sVguessing
p4259
I1056
sVrequirement
p4260
I4647
sVj
p4261
I3613
sVselfgrades
p4262
I4648
sVexists
p4263
I3498
sVGrading
p4264
I3499
sVframe
p4265
I1057
sVQuestion
p4266
I2245
sVreiterate
p4267
I3792
sVmodule
p4268
I4649
sVbreathe
p4269
I3674
sVreinforce
p4270
I2246
sVcomputer
p4271
I2247
sVscroll
p4272
I4494
sVunfairly
p4273
I4651
sVskateboarding
p4274
I1058
sVmisstep
p4275
I2248
sVvedant
p4276
I3501
sVgrieving
p4277
I3450
sVdisc
p4278
I4210
sVresponses
p4279
I3211
sV2018-2019
p4280
I4043
sVwalking
p4281
I3502
sV//inst.eecs..edu/~/sp18/
p4282
I2249
sVattempting
p4283
I3503
sVclearing
p4284
I3504
sVyash
p4285
I1059
sVbelow
p4286
I4754
sVtend
p4287
I2251
sVrolled
p4288
I169
sVstate
p4289
I2252
sVdifficulties
p4290
I3505
sVcorrectly
p4291
I2253
sVallotted
p4292
I2254
sVunderstood
p4293
I4447
sVlui
p4294
I2255
sVneither
p4295
I2256
sVfrustrated
p4296
I4658
sVemail
p4297
I1060
sVmidnight
p4298
I3987
sVluo
p4299
I2257
sVeecs
p4300
I4659
sVCheng_
p4301
I3417
sVends
p4302
I1061
sVgeorge
p4303
I4025
sVexam
p4304
I4599
sVimportance
p4305
I2258
sVph.d.
p4306
I3508
sVbuckets
p4307
I2259
sVimplementing
p4308
I3509
sVjob
p4309
I4662
sVle
p4310
I3418
sVno
p4311
I3907
sVdemonstrate
p4312
I4755
sVapproval
p4313
I2260
sVoptional
p4314
I1666
sVfiorella
p4315
I1062
sVmonitor
p4316
I2789
sVhits
p4317
I2262
sVfigured
p4318
I1063
sVcory*
p4319
I3511
sVlimits
p4320
I2263
sVcareer
p4321
I2264
sVinvited
p4322
I1064
sVacknowledge
p4323
I1543
sVequal
p4324
I3513
sVfulfilled
p4325
I3514
sVetc
p4326
I1065
sVadmit
p4327
I2265
sVa.m.
p4328
I2266
sVintuition-based
p4329
I3789
sV2018.
p4330
I4665
sVpassing
p4331
I3516
sVsafely
p4332
I4666
sVinvites
p4333
I1066
sVzheng*
p4334
I3517
sVotherwise
p4335
I3518
sVcomment
p4336
I3519
sVaa
p4337
I3520
sVrelevant
p4338
I3521
sVhuang
p4339
I1344
sVcutoff
p4340
I4462
sVcc
p4341
I1067
sVca
p4342
I1068
sVenvironments
p4343
I4668
sV*unspecified
p4344
I2268
sVipython
p4345
I3213
sVucb
p4346
I1069
sVnews
p4347
I3796
sVcs
p4348
I1070
sVleaked
p4349
I3004
sVoakland
p4350
I1714
sVundergraduate
p4351
I1072
sVearning
p4352
I3522
sVFilled
p4353
I2270
sVapril
p4354
I4664
sVforms
p4355
I1544
sVmisinformed
p4356
I4605
sVyay
p4357
I2272
sVLab/Discussion
p4358
I3523
sVwhy
p4359
I4622
sVaddition
p4360
I2273
sVdecent
p4361
I4674
sVholidays
p4362
I4425
sVcopies
p4363
I3524
sVahsan
p4364
I2274
sVtutor
p4365
I4676
sVjson
p4366
I1741
sVyan
p4367
I2275
sVslowly
p4368
I2276
sVtreat
p4369
I2277
sV*at
p4370
I2093
sVcopied
p4371
I3526
sVwaste
p4372
I1074
sV>
p4373
I1075
sVEECS
p4374
I3528
sVsuggested
p4375
I2563
sVmike
p4376
I4678
sVcorresponding
p4377
I2278
sVfinishes
p4378
I3529
sVattest
p4379
I2550
sVmoved
p4380
I1756
sVsufficient
p4381
I4679
sVc
p4382
I4386
sVCredit
p4383
I3322
sV//piazza.com//other/eecs101
p4384
I2279
sVaccident
p4385
I173
sVmail
p4386
I2791
sVhomework/labs
p4387
I2281
sVabhishek
p4388
I3531
sVfellow
p4389
I2230
sVdespite
p4390
I3775
sVpresent
p4391
I4683
sVMistake
p4392
I1077
sVLogistics
p4393
I2282
sVwood
p4394
I4069
sV7-9
p4395
I3532
sVcattarusa
p4396
I1078
sValign
p4397
I4685
sVharder
p4398
I2283
sVexcusing
p4399
I3533
sV2/12-16/2018
p4400
I1788
sVkavi
p4401
I2284
sVwill
p4402
I4687
sVreenrolled
p4403
I1079
sVintro
p4404
I4181
sVhandwriting
p4405
I3535
sVfrustrating
p4406
I3536
sVperiods
p4407
I3623
sV510-642-5042
p4408
I4600
sVpdt
p4409
I4688
sVve
p4410
I1080
sVmanually
p4411
I3537
sValmost
p4412
I3538
sVvi
p4413
I1081
sVconsecutive
p4414
I4378
sVinsanely
p4415
I1082
sVthus
p4416
I4689
sVlinkedin
p4417
I3539
sVweighed
p4418
I955
sVURGENT
p4419
I1084
sVvr
p4420
I1085
sVexcessively
p4421
I1086
sVavi
p4422
I4690
sVlifetime
p4423
I3011
sVclaimed
p4424
I3541
sVrasika
p4425
I1087
sVYou
p4426
I2287
sV7:10pm
p4427
I4692
sVwaivers
p4428
I1088
sVencompass
p4429
I4185
sVgreater
p4430
I3424
sVstands
p4431
I3945
sVcapture
p4432
I2288
sVdenial
p4433
I1091
sVtas
p4434
I4549
sVadded
p4435
I4347
sV)
p4436
I3543
sVbegan
p4437
I2289
sVMT1
p4438
I4696
sVadministration
p4439
I3544
sVaccess
p4440
I3367
sVcampus
p4441
I3625
sVmember
p4442
I4697
sVmatthew
p4443
I1092
sVparts
p4444
I2290
sVunits
p4445
I4698
sVparty
p4446
I2291
sVhw1
p4447
I4190
sVGradescope
p4448
I3545
sVfrivolous
p4449
I3546
sVdifficult
p4450
I4700
sVinjured
p4451
I3547
sVconflicting
p4452
I1093
sVphi
p4453
I1094
sVReviewed
p4454
I3323
sVhttp
p4455
I2292
sVraymond
p4456
I1095
sVgsis
p4457
I3298
sVabsorb
p4458
I2294
sVMedical
p4459
I1096
sV1-2
p4460
I2295
sVupon
p4461
I1097
sVeffect
p4462
I2296
sVv.
p4463
I1098
sVsid:25356220
p4464
I1099
sVstudent
p4465
I4702
sVaccomodations
p4466
I4703
sVlogin
p4467
I176
sVidentity
p4468
I1100
sVkeep
p4469
I2167
sVbroke
p4470
I4694
sV20faculty
p4471
I1101
sVoff
p4472
I1102
sVcenter
p4473
I3551
sVi
p4474
I2298
sVSpring
p4475
I1892
sVwell
p4476
I2299
sVRegrade
p4477
I2300
sVthought
p4478
I3553
sVinsurmountable
p4479
I2301
sV1
p4480
I3978
sVcommand
p4481
I1103
sVoops
p4482
I3554
sVsets
p4483
I3555
sVposition
p4484
I3556
sVbreaker
p4485
I4706
sVHw2
p4486
I4707
sVHw3
p4487
I4708
sVinc.
p4488
I4709
sVlatest
p4489
I1913
sVlaptop
p4490
I3842
sVcarrie
p4491
I4711
sV4/16*
p4492
I1104
sVless
p4493
I1105
sVmoments
p4494
I1106
sVhw/labs
p4495
I4713
sVaccurate
p4496
I2302
sVCal
p4497
I3559
sVdomestic
p4498
I3560
sVobtain
p4499
I4714
sVguowei
p4500
I3469
sVnot
p4501
I1549
sVSunday
p4502
I2304
sVmistakes
p4503
I2305
sVrooms
p4504
I1107
sVseats
p4505
I3563
sVGSI
p4506
I2307
sVfixable
p4507
I2645
sVcoordination
p4508
I2308
sV4.
p4509
I3627
sVberekley.edu
p4510
I1108
sVwed
p4511
I1109
sVenrollment/fees
p4512
I1355
sVlogged
p4513
I2310
sVday
p4514
I3429
sVreasons
p4515
I4393
sVadd
p4516
I3567
sVbook
p4517
I4761
sVcombine
p4518
I1110
sVshe/her/herswant
p4519
I3568
sVdipam
p4520
I2415
sVsmart
p4521
I1971
sVwarrant
p4522
I2311
sVhomework
p4523
I618
sVresolved
p4524
I3570
sVtests
p4525
I3571
sVwebcasted
p4526
I3572
sVaccomodation
p4527
I2797
sVchecking
p4528
I1111
sV*2.
p4529
I3575
sVfyi
p4530
I3576
sVfebruary
p4531
I1112
sV0/10
p4532
I2313
sVbuilt
p4533
I4427
sVtarnish
p4534
I4431
sVdoyle
p4535
I3577
sVwhatever
p4536
I1950
sVgmail.com
p4537
I3578
sVFInal
p4538
I2418
sVimmediately
p4539
I2314
sVpassword
p4540
I1113
sVdebatable
p4541
I1114
sVloss
p4542
I2316
sVnecessary
p4543
I2317
sVlike
p4544
I3580
sVexcluding
p4545
I2007
sVjuntai
p4546
I4394
sVnaameh
p4547
I3582
sValternatively
p4548
I2319
sVGuowei
p4549
I2320
sVverifying
p4550
I3431
sVlose
p4551
I126
sVbecome
p4552
I1115
sVworks
p4553
I3583
sVpage
p4554
I2322
sVcomprehension
p4555
I3804
sVdrop
p4556
I1556
sVregarde
p4557
I4607
sVshen
p4558
I2323
sVrepositories
p4559
I2799
sVtwitter
p4560
I2324
sV/or
p4561
I3805
sVstat
p4562
I2366
sVlibrary
p4563
I2325
sVtues
p4564
I3433
sVaccommodated
p4565
I4304
sVrepeat
p4566
I2326
sV111
p4567
I4475
sV110
p4568
I4727
sVrecommendation
p4569
I3585
sVproper
p4570
I3586
sVhome
p4571
I2327
sVpeter
p4572
I2328
sVstuffy
p4573
I3587
sViyer
p4574
I4728
sVhappens
p4575
I3588
sVess
p4576
I2057
sVbet
p4577
I2196
sVlead
p4578
I4730
sVsufficiently
p4579
I983
sVavoid
p4580
I1117
sVseparate
p4581
I4199
sVoverlap
p4582
I2331
sVe-mail
p4583
I2332
sVtad
p4584
I4551
sVdoes
p4585
I1118
sVpassion
p4586
I1119
sVassuming
p4587
I3590
sVscrewed
p4588
I3591
sVcareless
p4589
I2800
sVAccommodation
p4590
I4508
sV?
p4591
I730
sVresponds
p4592
I4675
sVregain
p4593
I3592
sVbiology
p4594
I1120
sVSubmission
p4595
I4732
sVschedule
p4596
I1121
sVFwd
p4597
I3594
sVUp
p4598
I2335
sVexpansion
p4599
I2336
sVability
p4600
I4661
sVpressure
p4601
I1122
sVnp
p4602
I3911
sVScheduling
p4603
I4493
sValthough
p4604
I3595
sVr
p4605
I4040
sVpaste
p4606
I4734
sVsister
p4607
I1123
sV25.5
p4608
I1124
sVextension
p4609
I4735
sVgetting
p4610
I4736
sV6ab
p4611
I3599
sVyunfang
p4612
I2337
sVcertainty
p4613
I2120
sVqinyang
p4614
I1125
sVliu*
p4615
I4049
sVreweight
p4616
I3494
sVupdate
p4617
I4151
sVmizuno
p4618
I3886
sVshoppin
p4619
I1126
sVsoftware
p4620
I1127
sVown
p4621
I4738
sVletters
p4622
I1128
sVkinda
p4623
I4769
sVrectify
p4624
I1129
sVpreviously
p4625
I4570
sVRemoved
p4626
I2431
sVleniency
p4627
I2340
sVchronic
p4628
I2143
sVAbsence
p4629
I2341
sVreply-all
p4630
I3602
sVlung
p4631
I1130
sVfinalizing
p4632
I2342
sVnational
p4633
I3500
sVregistration
p4634
I4586
sV8.
p4635
I4584
sVadditions
p4636
I2343
sVquickly
p4637
I3810
sVforget
p4638
I3026
sVuncontrollably
p4639
I4741
sVSarth
p4640
I4593
sVvan
p4641
I4742
sVadditional
p4642
I2344
sVwhom
p4643
I4403
sVtransfer
p4644
I4743
sVhousing
p4645
I1131
sV*
p4646
I4744
sVspots
p4647
I1132
sVnoticed
p4648
I2345
sVpranav
p4649
I2359
sVhyun
p4650
I4585
sVtrigger
p4651
I2575
sVfrustration
p4652
I1134
sVannette
p4653
I1135
sV9.0
p4654
I1136
sV9.2
p4655
I1137
sVnaturally
p4656
I1138
sVfunction
p4657
I1139
sV8am-5pm
p4658
I2346
sV6-8pm
p4659
I3605
sVoverlaps
p4660
I4501
sVnotified
p4661
I3710
sVmake-up
p4662
I4405
sVhw
p4663
I2347
sVoverlapping
p4664
I1140
sV*cindy
p4665
I2816
sVadministrators
p4666
I2348
sVexpected
p4667
I3812
sVtasked
p4668
I4750
sVhi
p4669
I2349
sVRe
p4670
I4643
sVho
p4671
I2350
sVwaitlists
p4672
I1141
sVhelpful
p4673
I4721
sVdelivers
p4674
I1142
sVstating
p4675
I4434
sVeat
p4676
I2352
sVhe
p4677
I2353
sVcount
p4678
I1143
sVmade
p4679
I4751
sVcompute
p4680
I1144
sVplaces
p4681
I1145
sVsociety
p4682
I1146
sVvenugopal
p4683
I3574
sVwish
p4684
I3612
sVfinals
p4685
I4202
sVofficial
p4686
I1147
sVhosting
p4687
I2354
sVsigned
p4688
I2355
sVplaced
p4689
I1148
sVcruel
p4690
I2356
sVjongmin
p4691
I3614
sVstories
p4692
I2357
sVriley
p4693
I2578
sV3-6
p4694
I1767
sVDiscussions
p4695
I3615
sV***students
p4696
I1149
sVproblem
p4697
I1150
sVpm
p4698
I4408
sVminutes
p4699
I3616
sVdisplay
p4700
I2358
sVyuki
p4701
I1151
sVskating
p4702
I3617
sVbearing
p4703
I1152
sVwifi
p4704
I4205
sVreplying
p4705
I3618
sViphone
p4706
I3963
sV47D
p4707
I1153
sVrecognize
p4708
I1154
sV4/16
p4709
I3620
sV4/17
p4710
I3621
sVEnroll
p4711
I2580
sV4/12
p4712
I3622
sVdenote
p4713
I1155
sVPotentially
p4714
I4756
sVerring
p4715
I1156
sVAffecting
p4716
I2360
sVeducation
p4717
I2361
sVeric
p4718
I2362
sVworse
p4719
I4220
sVfunctions
p4720
I4701
sVcompared
p4721
I1157
sV'll
p4722
I4759
sV47d
p4723
I1158
sVSessions
p4724
I4760
sV~30
p4725
I2363
sVdetail
p4726
I3626
sVDelivery
p4727
I2364
sVother
p4728
I4717
sVlookup
p4729
I1159
sVdetails
p4730
I1160
sVwaitlisted
p4731
I2365
sV'18
p4732
I4762
sVincredibly
p4733
I4763
sVcontacting
p4734
I4764
sVconclusion
p4735
I4765
sVFebruary
p4736
I1161
sVzheng
p4737
I1162
sVkinds
p4738
I4766
sVrespected
p4739
I3540
sVzhou
p4740
I1163
sVclass
p4741
I3891
sVperiod*
p4742
I3628
sVultimately
p4743
I4006
sVstay
p4744
I2367
sVApril
p4745
I3629
sVchance
p4746
I1164
sVmedications
p4747
I1574
sVmisspeaking
p4748
I4768
sVadditionally
p4749
I2368
sV668-1517
p4750
I3630
sVAccomodations
p4751
I1165
sVspacing
p4752
I3373
sVfriends
p4753
I2369
sVMar
p4754
I3328
sVghost
p4755
I1166
sVfocused
p4756
I2089
sVbreaks
p4757
I3850
sVwebcasts
p4758
I4007
sVdifficulty
p4759
I4249
sVstarting
p4760
I3631
sVmartin
p4761
I2321
sVSwitch
p4762
I1957
sVrule
p4763
I1168
sV-score
p4764
I2952
sVhousemates
p4765
I4274
sVportion
p4766
I2370
sVelaine
p4767
I1169
sVdiagnosis
p4768
I2371
sVsearched
p4769
I1170
sVlives
p4770
I1958
sV8th
p4771
I3598
sV4a
p4772
I2372
s(lp4773
g1
ag1597
ag18
ag35
ag45
ag51
ag55
ag63
ag67
ag68
ag75
ag83
ag87
ag97
ag98
ag99
ag103
ag104
ag105
ag110
ag111
ag120
ag123
ag128
ag138
ag139
ag145
ag147
ag156
ag158
ag159
ag168
ag169
ag173
ag177
ag179
ag180
ag185
ag190
ag191
ag1215
ag193
ag1245
ag206
ag208
ag211
ag216
ag220
ag1389
ag226
ag227
ag231
ag238
ag240
ag241
ag242
ag243
ag248
ag249
ag259
ag265
ag1761
ag277
ag283
ag284
ag286
ag292
ag303
ag307
ag316
ag318
ag332
ag335
ag338
ag346
ag358
ag364
ag368
ag2547
ag370
ag382
ag388
ag2403
ag392
ag1668
ag403
ag3259
ag1670
ag1671
ag3261
ag418
ag421
ag429
ag434
ag445
ag448
ag451
ag455
ag457
ag458
ag459
ag463
ag466
ag488
ag489
ag3078
ag503
ag507
ag509
ag511
ag526
ag530
ag531
ag532
ag538
ag541
ag542
ag545
ag548
ag549
ag550
ag3443
ag557
ag558
ag561
ag3509
ag4551
ag564
ag3288
ag567
ag571
ag574
ag579
ag580
ag581
ag584
ag586
ag1702
ag592
ag593
ag597
ag598
ag599
ag601
ag1704
ag612
ag626
ag94
ag628
ag638
ag641
ag645
ag647
ag4040
ag650
ag651
ag4055
ag661
ag4109
ag663
ag665
ag4171
ag4212
ag678
ag679
ag685
ag3309
ag689
ag690
ag4288
ag694
ag699
ag706
ag4385
ag3313
ag721
ag4467
ag724
ag726
ag733
ag735
ag737
ag747
ag753
ag757
ag760
ag763
ag769
ag770
ag771
ag774
ag779
ag1769
ag802
ag809
ag821
ag823
ag824
ag825
ag3339
ag841
ag849
ag872
ag883
ag884
ag901
ag905
ag907
ag909
ag916
ag785
ag788
ag927
ag928
ag930
ag904
ag939
ag949
ag953
ag954
ag956
ag959
ag964
ag965
ag967
ag970
ag986
ag988
ag989
ag3360
ag999
ag1013
ag1015
ag1020
ag1031
ag1037
ag1038
ag1040
ag1041
ag1043
ag1044
ag1047
ag1049
ag1051
ag2679
ag1060
ag1064
ag1067
ag3369
ag1071
ag1072
ag1076
ag1082
ag1083
ag1084
ag1085
ag1087
ag1090
ag1091
ag1092
ag1100
ag1106
ag1110
ag1789
ag1113
ag1116
ag1120
ag1127
ag1128
ag1130
ag1132
ag1137
ag1141
ag1146
ag1152
ag1158
ag1166
ag1169
ag1171
ag1799
ag1176
ag1186
ag1187
ag1194
ag1195
ag1207
ag1220
ag1231
ag1240
ag1243
ag1247
ag1248
ag1255
ag1257
ag1258
ag1262
ag1264
ag1265
ag1267
ag1273
ag1275
ag1280
ag1281
ag1292
ag1296
ag1300
ag3406
ag1307
ag1310
ag1314
ag1315
ag1317
ag1322
ag1324
ag1330
ag1335
ag1342
ag1346
ag1351
ag1355
ag1357
ag1358
ag1365
ag1367
ag1370
ag1374
ag1376
ag1377
ag1379
ag1385
ag1386
ag1388
ag1398
ag1400
ag1401
ag1407
ag1412
ag1413
ag1414
ag3423
ag1417
ag1426
ag1435
ag1437
ag1445
ag1447
ag1455
ag1467
ag1468
ag1469
ag1473
ag1474
ag1475
ag1477
ag1480
ag1485
ag1489
ag1494
ag1495
ag1503
ag1505
ag1506
ag1507
ag1508
ag1512
ag1515
ag1520
ag1521
ag1522
ag1524
ag1527
ag1531
ag1536
ag1540
ag1545
ag1546
ag1558
ag1559
ag1563
ag1574
ag1590
ag1591
ag1595
ag1599
ag1600
ag1603
ag1604
ag1613
ag1616
ag1617
ag1619
ag1621
ag1622
ag1623
ag1630
ag1632
ag1634
ag1648
ag1649
ag1651
ag1652
ag1655
ag1656
ag1657
ag1658
ag1661
ag1665
ag1667
ag1672
ag1680
ag1681
ag1684
ag1686
ag1693
ag1695
ag3467
ag1720
ag1721
ag1725
ag1729
ag1730
ag1732
ag1733
ag1734
ag1737
ag1738
ag1739
ag1740
ag1741
ag1745
ag1750
ag1752
ag1754
ag1757
ag934
ag1768
ag980
ag1771
ag1772
ag1775
ag1785
ag1790
ag1793
ag1897
ag1797
ag1798
ag1899
ag1803
ag1804
ag1813
ag1815
ag1818
ag1820
ag1830
ag1834
ag1835
ag1842
ag1858
ag1862
ag1866
ag1870
ag1871
ag1888
ag1892
ag1893
ag1905
ag1909
ag1916
ag1918
ag1924
ag1928
ag1934
ag1939
ag1940
ag1946
ag1958
ag1969
ag1970
ag1973
ag1974
ag1975
ag1980
ag1981
ag1985
ag1993
ag3521
ag2001
ag2003
ag2019
ag2023
ag2025
ag2758
ag2048
ag2049
ag412
ag2070
ag2072
ag2079
ag2081
ag2083
ag2086
ag2091
ag2097
ag2100
ag2104
ag2118
ag2119
ag3270
ag1948
ag2132
ag2126
ag2143
ag2147
ag2155
ag2157
ag2158
ag2159
ag2172
ag2176
ag2186
ag2188
ag2191
ag2192
ag2194
ag2204
ag2209
ag360
ag2226
ag2228
ag2236
ag2237
ag2239
ag2244
ag2250
ag2253
ag2255
ag2257
ag2262
ag2270
ag2279
ag2280
ag2281
ag2284
ag2285
ag2287
ag2288
ag2291
ag2297
ag2299
ag2300
ag2301
ag2304
ag2305
ag2307
ag2308
ag2310
ag2312
ag2314
ag2318
ag2331
ag2344
ag2346
ag2351
ag2355
ag2366
ag2369
ag2378
ag2383
ag2384
ag2387
ag3254
ag2392
ag2394
ag2398
ag2399
ag2408
ag2415
ag2419
ag2420
ag2436
ag2437
ag2438
ag2439
ag2446
ag2448
ag2450
ag2453
ag2464
ag2465
ag2470
ag2479
ag2482
ag2490
ag2493
ag2494
ag2496
ag2497
ag2502
ag2503
ag2507
ag2519
ag2520
ag2523
ag2525
ag2528
ag2529
ag413
ag2533
ag2534
ag2538
ag2545
ag1009
ag2548
ag2549
ag2553
ag2554
ag2559
ag4112
ag4523
ag2563
ag2565
ag2568
ag2581
ag2586
ag3625
ag2596
ag2597
ag848
ag2603
ag2604
ag2605
ag2608
ag2609
ag2610
ag2612
ag2616
ag2619
ag2621
ag2631
ag2632
ag433
ag2635
ag2642
ag2651
ag2055
ag2656
ag2660
ag2661
ag2663
ag2673
ag2680
ag2683
ag2684
ag2685
ag2688
ag2701
ag2705
ag2712
ag3644
ag2719
ag2726
ag449
ag2740
ag2741
ag2743
ag2744
ag2747
ag2751
ag2754
ag2044
ag3651
ag2774
ag2777
ag2778
ag2779
ag2788
ag2792
ag2793
ag2796
ag2806
ag2808
ag2809
ag2810
ag2817
ag2827
ag2840
ag2842
ag148
ag2846
ag2855
ag2856
ag2858
ag2870
ag2872
ag2874
ag2880
ag2881
ag2887
ag2891
ag2892
ag2906
ag2910
ag2914
ag2930
ag2931
ag2933
ag2934
ag2936
ag2938
ag3677
ag2947
ag3934
ag2956
ag2960
ag2963
ag3683
ag2970
ag2976
ag2977
ag2980
ag2986
ag2992
ag2994
ag2996
ag3690
ag3001
ag3002
ag3008
ag3009
ag3012
ag4591
ag3025
ag3032
ag3034
ag3035
ag3036
ag3040
ag3042
ag3047
ag3053
ag3059
ag3061
ag3068
ag3069
ag494
ag3079
ag3080
ag3083
ag3093
ag3095
ag3097
ag3098
ag3105
ag3108
ag3112
ag3117
ag3123
ag3128
ag3130
ag3141
ag3142
ag3156
ag3162
ag3176
ag3177
ag3179
ag3181
ag3185
ag3186
ag3189
ag3198
ag3204
ag3205
ag3207
ag3210
ag3213
ag3215
ag3217
ag3219
ag3226
ag3229
ag3230
ag518
ag2120
ag3248
ag3262
ag3266
ag3268
ag3269
ag2123
ag3271
ag3276
ag3732
ag3280
ag3281
ag3282
ag3287
ag2129
ag2130
ag715
ag3316
ag3322
ag3323
ag3324
ag3326
ag3329
ag3331
ag3333
ag3335
ag3336
ag3340
ag3343
ag3346
ag3347
ag3349
ag3350
ag997
ag3362
ag3366
ag3367
ag3379
ag3381
ag3382
ag3385
ag3386
ag3398
ag3399
ag3400
ag3402
ag3403
ag3414
ag3415
ag3416
ag3417
ag3418
ag3421
ag2152
ag3428
ag3438
ag3439
ag3444
ag3449
ag3457
ag3458
ag3463
ag3464
ag1700
ag3468
ag3474
ag3477
ag3478
ag3480
ag3483
ag3484
ag3489
ag3491
ag3492
ag3495
ag3499
ag3500
ag3501
ag3502
ag3504
ag3507
ag3508
ag2311
ag3510
ag3515
ag3516
ag3518
ag3522
ag3523
ag3527
ag3528
ag3532
ag3536
ag3538
ag566
ag3547
ag3551
ag3568
ag3570
ag3574
ag3407
ag3577
ag3582
ag3583
ag3584
ag3587
ag3590
ag3591
ag3592
ag3593
ag3596
ag3598
ag3602
ag3608
ag3612
ag3613
ag3614
ag3618
ag683
ag2594
ag3626
ag3630
ag3631
ag3640
ag3643
ag3646
ag2772
ag3653
ag3655
ag3662
ag591
ag3679
ag2967
ag3691
ag3700
ag3701
ag3702
ag3705
ag3708
ag3711
ag3714
ag3717
ag3720
ag3721
ag3722
ag3726
ag3731
ag3733
ag3751
ag3752
ag3756
ag3757
ag3763
ag3765
ag3774
ag3782
ag3789
ag3794
ag3796
ag3797
ag3805
ag3818
ag3820
ag3821
ag3822
ag3827
ag3829
ag3834
ag3839
ag3852
ag3856
ag3859
ag4418
ag3861
ag3862
ag3863
ag3865
ag3868
ag3870
ag3873
ag3874
ag3878
ag3881
ag3885
ag3891
ag3898
ag3902
ag3904
ag3910
ag3912
ag3914
ag3915
ag3917
ag3918
ag3926
ag3927
ag3933
ag3938
ag3941
ag3947
ag4579
ag2234
ag3965
ag3970
ag3971
ag3972
ag3981
ag3982
ag3984
ag3854
ag3995
ag639
ag2245
ag2249
ag4019
ag4021
ag4022
ag4023
ag2251
ag4026
ag646
ag4037
ag2256
ag4049
ag4052
ag4062
ag4063
ag4066
ag4067
ag4071
ag4081
ag4087
ag4096
ag4098
ag4099
ag3872
ag4108
ag4113
ag4114
ag4122
ag4126
ag4130
ag4138
ag4140
ag4153
ag4154
ag4156
ag4167
ag4170
ag4175
ag4187
ag4189
ag4192
ag4194
ag4196
ag4208
ag4209
ag4210
ag4217
ag4219
ag4221
ag4222
ag4224
ag4225
ag4226
ag4227
ag4236
ag4237
ag4239
ag4247
ag4250
ag4251
ag4253
ag4259
ag4265
ag4274
ag4285
ag4297
ag4302
ag4315
ag4318
ag4322
ag4326
ag4333
ag4341
ag4342
ag4346
ag4348
ag3909
ag4351
ag3913
ag4372
ag4373
ag709
ag4392
ag4396
ag4403
ag4410
ag4413
ag4415
ag2580
ag4419
ag4420
ag4421
ag4425
ag4428
ag2319
ag3925
ag4433
ag4443
ag4452
ag4453
ag4456
ag4459
ag4461
ag4463
ag4464
ag4468
ag4471
ag4472
ag4481
ag4492
ag4493
ag4494
ag4504
ag4510
ag4511
ag4518
ag4528
ag4531
ag4540
ag4541
ag4552
ag3949
ag4580
ag4585
ag4586
ag4594
ag4596
ag4601
ag4607
ag4608
ag4614
ag4619
ag4620
ag4622
ag4624
ag4631
ag4645
ag4647
ag2359
ag4652
ag4653
ag4654
ag4655
ag4656
ag4657
ag4664
ag4672
ag4674
ag4678
ag4680
ag4681
ag4682
ag4686
ag4689
ag4696
ag4697
ag4701
ag4703
ag4707
ag4708
ag4713
ag4715
ag4721
ag4723
ag4729
ag4730
ag4736
ag4737
ag4740
ag4746
ag4751
ag4755
ag3983
ag4763
ag4767
ag4769
ag3986
ag3
ag2382
ag7
ag13
ag2385
ag27
ag33
ag49
ag372
ag59
ag3997
ag61
ag62
ag70
ag74
ag493
ag78
ag80
ag81
ag82
ag2397
ag86
ag91
ag794
ag95
ag96
ag108
ag115
ag124
ag125
ag130
ag134
ag135
ag136
ag144
ag924
ag937
ag152
ag153
ag154
ag157
ag164
ag2409
ag171
ag175
ag183
ag184
ag1172
ag192
ag195
ag197
ag200
ag201
ag207
ag215
ag217
ag1382
ag222
ag224
ag225
ag230
ag234
ag236
ag237
ag245
ag250
ag251
ag252
ag254
ag256
ag257
ag263
ag264
ag271
ag275
ag279
ag285
ag287
ag291
ag293
ag295
ag305
ag308
ag321
ag322
ag323
ag324
ag329
ag330
ag2067
ag334
ag336
ag341
ag344
ag350
ag351
ag355
ag389
ag391
ag393
ag394
ag397
ag409
ag410
ag419
ag423
ag424
ag431
ag432
ag440
ag450
ag453
ag454
ag2798
ag462
ag470
ag475
ag479
ag487
ag498
ag500
ag504
ag505
ag3517
ag514
ag523
ag524
ag525
ag873
ag534
ag536
ag547
ag551
ag552
ag555
ag560
ag563
ag570
ag572
ag573
ag576
ag577
ag583
ag590
ag594
ag600
ag886
ag611
ag615
ag618
ag620
ag625
ag3900
ag633
ag642
ag648
ag649
ag653
ag654
ag658
ag659
ag662
ag667
ag672
ag673
ag677
ag682
ag684
ag687
ag688
ag691
ag693
ag4339
ag4095
ag703
ag707
ag708
ag711
ag714
ag723
ag725
ag728
ag731
ag4512
ag745
ag761
ag765
ag767
ag772
ag782
ag919
ag920
ag796
ag798
ag803
ag804
ag807
ag812
ag255
ag274
ag828
ag4120
ag833
ag835
ag366
ag847
ag850
ag851
ag861
ag863
ag864
ag865
ag866
ag868
ag871
ag4131
ag876
ag887
ag895
ag898
ag900
ag362
ag902
ag915
ag4199
ag925
ag929
ag938
ag941
ag951
ag1008
ag960
ag977
ag922
ag983
ag984
ag1180
ag994
ag1223
ag1256
ag1000
ag1004
ag1006
ag1017
ag1018
ag1021
ag1023
ag1036
ag1042
ag4157
ag1053
ag1058
ag4158
ag1061
ag1066
ag2028
ag1069
ag1074
ag1077
ag1080
ag1753
ag1764
ag1096
ag1099
ag1101
ag1109
ag1121
ag1125
ag1129
ag1133
ag1134
ag1135
ag1142
ag1145
ag1150
ag1156
ag1161
ag1163
ag1165
ag2214
ag1168
ag2286
ag1181
ag1182
ag1185
ag2573
ag1191
ag1193
ag2404
ag1204
ag1205
ag1206
ag1210
ag1219
ag2558
ag1228
ag1230
ag1234
ag1235
ag4185
ag1239
ag1241
ag1244
ag1246
ag1251
ag1253
ag2780
ag2815
ag2843
ag1277
ag1283
ag1288
ag1291
ag1294
ag1297
ag1303
ag1312
ag4201
ag1318
ag1319
ag1320
ag1323
ag1339
ag3304
ag1348
ag1352
ag1354
ag1356
ag3370
ag1359
ag1360
ag1362
ag1366
ag1368
ag1371
ag1373
ag3471
ag3476
ag1383
ag3539
ag1392
ag1404
ag1408
ag3689
ag3694
ag1415
ag1416
ag1418
ag1421
ag1425
ag1429
ag1430
ag1432
ag1439
ag471
ag1449
ag1459
ag1464
ag1482
ag1483
ag4169
ag1499
ag1500
ag1501
ag1502
ag958
ag4243
ag4246
ag1510
ag1513
ag1514
ag4323
ag4355
ag1525
ag1533
ag1534
ag1544
ag4501
ag1547
ag1548
ag1549
ag1550
ag1048
ag1556
ag4556
ag1561
ag1565
ag1568
ag1569
ag1571
ag1572
ag1573
ag1575
ag1576
ag1578
ag1581
ag1583
ag1584
ag1585
ag1586
ag1588
ag1589
ag4747
ag1593
ag1594
ag15
ag1602
ag1606
ag1608
ag1609
ag2007
ag1618
ag127
ag1620
ag1625
ag1629
ag1633
ag1637
ag1640
ag1642
ag1645
ag1650
ag1653
ag339
ag1659
ag1662
ag1663
ag1664
ag1666
ag399
ag411
ag415
ag1673
ag1676
ag465
ag1682
ag1687
ag1691
ag1692
ag529
ag3103
ag605
ag1719
ag749
ag1731
ag822
ag1081
ag2401
ag910
ag1759
ag1760
ag1767
ag1773
ag1774
ag1779
ag1783
ag1784
ag1786
ag1792
ag1996
ag1801
ag1802
ag1806
ag1809
ag1811
ag1817
ag1821
ag1823
ag1829
ag1831
ag1419
ag1844
ag1847
ag1852
ag1854
ag1855
ag1877
ag1881
ag1889
ag1891
ag1900
ag1902
ag1904
ag1906
ag1908
ag1911
ag1919
ag1927
ag2002
ag2077
ag1942
ag1952
ag1954
ag1960
ag4314
ag1963
ag1968
ag1982
ag1991
ag1992
ag1994
ag2011
ag2015
ag2715
ag1131
ag2021
ag2029
ag2030
ag2038
ag2040
ag2041
ag2046
ag2057
ag2064
ag2065
ag2069
ag2071
ag2073
ag2074
ag2075
ag2082
ag2085
ag1140
ag2095
ag2098
ag2102
ag2105
ag2112
ag2113
ag2733
ag2117
ag3245
ag4011
ag2125
ag3303
ag2133
ag2148
ag2150
ag2742
ag2156
ag2166
ag2169
ag4350
ag2177
ag2180
ag2185
ag4012
ag2193
ag2195
ag2196
ag2200
ag2201
ag2202
ag3778
ag2205
ag2216
ag2218
ag2224
ag2225
ag2232
ag2233
ag2238
ag2241
ag2242
ag3999
ag2248
ag4013
ag4015
ag4024
ag4366
ag2254
ag4048
ag2260
ag2261
ag4072
ag2264
ag2269
ag2274
ag2277
ag2283
ag4229
ag1177
ag2292
ag3576
ag4380
ag2313
ag2330
ag2333
ag2336
ag2337
ag2339
ag2354
ag2358
ag2360
ag2362
ag4694
ag2367
ag2371
ag14
ag17
ag2389
ag2391
ag2393
ag85
ag2402
ag2405
ag2421
ag2422
ag2423
ag2427
ag2432
ag313
ag2443
ag2451
ag2452
ag2457
ag4400
ag2473
ag2489
ag2492
ag2501
ag736
ag2509
ag2511
ag2516
ag2526
ag852
ag2536
ag2540
ag2550
ag1221
ag2552
ag2560
ag2561
ag2562
ag1117
ag2564
ag2567
ag2570
ag2574
ag3599
ag2822
ag2593
ag2598
ag2600
ag2606
ag405
ag2636
ag2637
ag2640
ag386
ag2646
ag2650
ag2653
ag2654
ag2657
ag2659
ag4149
ag1860
ag2664
ag2665
ag2670
ag2672
ag2675
ag2676
ag1030
ag2682
ag2687
ag2698
ag2700
ag2703
ag2714
ag2718
ag2722
ag2727
ag2728
ag2730
ag2735
ag2144
ag2149
ag2745
ag2750
ag2756
ag2757
ag150
ag2762
ag2771
ag2775
ag2776
ag2361
ag1964
ag2782
ag2783
ag2784
ag2786
ag2789
ag2790
ag2428
ag2795
ag2799
ag2803
ag2804
ag2522
ag2535
ag2811
ag2813
ag2819
ag2611
ag2830
ag2834
ag2836
ag2724
ag2853
ag2864
ag2869
ag2897
ag2876
ag2899
ag2900
ag2902
ag4475
ag2909
ag2913
ag2918
ag2920
ag2921
ag2924
ag2925
ag4107
ag2932
ag2591
ag2943
ag2946
ag2951
ag2959
ag2965
ag2974
ag2975
ag331
ag2978
ag3535
ag4489
ag2983
ag2984
ag2968
ag2999
ag3010
ag3011
ag3015
ag3022
ag3840
ag3027
ag2246
ag3884
ag2787
ag3037
ag3038
ag614
ag3052
ag3054
ag3060
ag3063
ag3072
ag3073
ag3081
ag3082
ag3087
ag3090
ag3091
ag3632
ag3099
ag3100
ag3110
ag3122
ag3127
ag3132
ag3136
ag3139
ag4536
ag3154
ag3164
ag3166
ag3171
ag3173
ag3183
ag4762
ag4770
ag3187
ag3188
ag8
ag3191
ag3192
ag3193
ag3194
ag3195
ag3196
ag3200
ag84
ag3211
ag4521
ag1329
ag3218
ag129
ag3220
ag3221
ag2923
ag3232
ag3236
ag3241
ag3242
ag3247
ag3249
ag3250
ag3253
ag3255
ag3256
ag428
ag3263
ag3273
ag3279
ag543
ag3283
ag3298
ag3299
ag655
ag3312
ag3314
ag3318
ag3320
ag3330
ag806
ag3334
ag838
ag2905
ag3344
ag4545
ag3351
ag3353
ag3354
ag3359
ag3363
ag3364
ag1079
ag3371
ag3374
ag3375
ag3377
ag3380
ag3383
ag1170
ag2952
ag3401
ag1302
ag3411
ag3420
ag3432
ag3434
ag3436
ag3437
ag3440
ag3447
ag3453
ag3455
ag3460
ag3465
ag3473
ag3479
ag1796
ag3493
ag1859
ag3496
ag3497
ag327
ag3511
ag3519
ag3520
ag3824
ag3542
ag3544
ag2151
ag3552
ag3554
ag3556
ag3558
ag3564
ag4576
ag2282
ag3571
ag3575
ag4088
ag3586
ag3594
ag3569
ag3601
ag3604
ag3615
ag3621
ag3633
ag3637
ag3638
ag3641
ag3645
ag2753
ag3647
ag3649
ag3654
ag3658
ag3659
ag3661
ag3666
ag3671
ag3674
ag3676
ag3003
ag3693
ag3695
ag3709
ag4756
ag3715
ag4064
ag1333
ag4370
ag3729
ag3734
ag3736
ag3737
ag3738
ag3739
ag3740
ag1422
ag3747
ag3753
ag3762
ag3771
ag3772
ag3773
ag3775
ag3779
ag3780
ag3781
ag3557
ag3783
ag3788
ag3603
ag3791
ag3713
ag3806
ag3807
ag4613
ag3811
ag3816
ag3828
ag3830
ag3833
ag3903
ag3846
ag3155
ag3876
ag4145
ag3890
ag3893
ag3896
ag3901
ag1450
ag2504
ag3905
ag3906
ag3907
ag3041
ag3935
ag3936
ag4628
ag3944
ag3946
ag3955
ag3956
ag3957
ag3959
ag3963
ag3966
ag3973
ag3976
ag3985
ag3990
ag3991
ag3992
ag3994
ag3996
ag3998
ag4000
ag4001
ag4008
ag239
ag4018
ag4020
ag4469
ag3294
ag4028
ag4030
ag4032
ag4033
ag4034
ag4035
ag4042
ag4044
ag4045
ag426
ag460
ag4056
ag4058
ag4059
ag4060
ag4061
ag4065
ag4070
ag1610
ag4073
ag4074
ag4082
ag4083
ag4089
ag4092
ag1484
ag4097
ag4577
ag783
ag1380
ag1397
ag4116
ag4119
ag4127
ag4128
ag4132
ag4133
ag4143
ag4148
ag4150
ag4151
ag4152
ag2694
ag1059
ag4163
ag4164
ag4166
ag4177
ag4178
ag4181
ag4184
ag4186
ag4197
ag1305
ag4202
ag4204
ag4205
ag4207
ag404
ag4215
ag163
ag4389
ag4228
ag4231
ag4233
ag4234
ag483
ag4240
ag4241
ag4245
ag1542
ag314
ag4249
ag4252
ag4254
ag4257
ag4266
ag4270
ag4271
ag4275
ag4282
ag142
ag4287
ag4289
ag4291
ag4292
ag4294
ag4295
ag4299
ag4305
ag4307
ag4313
ag1519
ag4317
ag4320
ag4321
ag4327
ag4328
ag2115
ag4344
ag2178
ag4353
ag544
ag4357
ag4360
ag4364
ag4367
ag4368
ag4369
ag4377
ag4384
ag1529
ag4387
ag4393
ag4398
ag4401
ag1190
ag696
ag4426
ag4432
ag4437
ag4444
ag4446
ag4455
ag3126
ag4458
ag4460
ag4462
ag2888
ag4474
ag4476
ag4477
ag4479
ag4496
ag3045
ag4502
ag4503
ag3058
ag4506
ag4508
ag3135
ag4513
ag4522
ag42
ag4532
ag4539
ag3310
ag4542
ag4543
ag272
ag4548
ag4549
ag4761
ag4554
ag4558
ag4560
ag4563
ag4566
ag4571
ag4572
ag3146
ag3325
ag4582
ag4583
ag3656
ag3151
ag4598
ag4599
ag4612
ag899
ag3894
ag4627
ag4629
ag4632
ag4636
ag4642
ag4648
ag4658
ag4663
ag4666
ag4669
ag4671
ag312
ag4676
ag4677
ag4687
ag4688
ag4690
ag4692
ag4700
ag4649
ag4716
ag4717
ag4718
ag4725
ag4727
ag4731
ag4562
ag4744
ag4749
ag4753
ag4766
ag4768
ag4772
ag12
ag4
ag11
ag100
ag118
ag21
ag28
ag30
ag31
ag223
ag38
ag41
ag43
ag44
ag47
ag48
ag408
ag57
ag58
ag398
ag3085
ag64
ag65
ag490
ag4230
ag79
ag537
ag3707
ag616
ag93
ag627
ag587
ag102
ag106
ag107
ag739
ag112
ag113
ag114
ag117
ag119
ag122
ag4520
ag801
ag126
ag4538
ag131
ag133
ag843
ag1647
ag862
ag143
ag149
ag962
ag1967
ag155
ag167
ag170
ag4626
ag172
ag1111
ag178
ag29
ag186
ag196
ag199
ag209
ag213
ag218
ag219
ag1406
ag228
ag717
ag2623
ag247
ag1579
ag253
ag258
ag1660
ag266
ag267
ag268
ag269
ag270
ag280
ag281
ag294
ag1885
ag298
ag299
ag304
ag1933
ag309
ag311
ag315
ag2416
ag319
ag325
ag328
ag1628
ag354
ag357
ag2208
ag359
ag2221
ag54
ag2252
ag371
ag3148
ag376
ag377
ag384
ag390
ag396
ag2433
ag401
ag402
ag2531
ag425
ag427
ag435
ag436
ag439
ag441
ag442
ag2739
ag1677
ag461
ag2851
ag472
ag477
ag478
ag482
ag484
ag486
ag2991
ag492
ag176
ag495
ag496
ag3064
ag510
ag513
ag516
ag517
ag3240
ag519
ag520
ag2993
ag3319
ag1073
ag540
ag3430
ag2174
ag3488
ag559
ag562
ag1736
ag2348
ag3585
ag578
ag3572
ag3650
ag596
ag602
ag609
ag3790
ag3812
ag619
ag621
ag631
ag3953
ag1714
ag3988
ag556
ag643
ag644
ag4379
ag4047
ag1562
ag656
ag660
ag666
ag668
ag671
ag1493
ag681
ag2505
ag1363
ag701
ag4375
ag710
ag716
ag718
ag730
ag738
ag742
ag748
ag750
ag751
ag754
ag755
ag4651
ag762
ag764
ag4693
ag768
ag4711
ag775
ag776
ag777
ag778
ag781
ag784
ag787
ag789
ag793
ag2644
ag808
ag810
ag811
ag813
ag814
ag816
ag817
ag818
ag819
ag826
ag832
ag834
ag2198
ag856
ag857
ag859
ag860
ag1746
ag491
ag869
ag875
ag877
ag878
ag879
ag881
ag882
ag885
ag603
ag888
ag890
ag892
ag897
ag664
ag675
ag906
ag734
ag1959
ag921
ag931
ag932
ag933
ag923
ag940
ag945
ag947
ag948
ag974
ag966
ag972
ag973
ag975
ag979
ag3490
ag982
ag4507
ag3358
ag4009
ag991
ag992
ag2173
ag1005
ag32
ag4180
ag1028
ag1472
ag1033
ag1046
ag3636
ag1551
ag3435
ag1068
ag1728
ag1260
ag1824
ag1104
ag1105
ag1108
ag1926
ag1119
ag121
ag2020
ag1136
ag1138
ag2087
ag1148
ag1149
ag1153
ag2190
ag1173
ag1175
ag2240
ag2290
ag1179
ag2491
ag1184
ag1192
ag1196
ag1199
ag1201
ag1202
ag2500
ag1211
ag1212
ag1217
ag1218
ag2551
ag1222
ag1224
ag1226
ag194
ag2678
ag3101
ag1250
ag1252
ag2768
ag1124
ag1266
ag1268
ag1270
ag2871
ag1279
ag2912
ag1188
ag1282
ag1284
ag1285
ag1286
ag1287
ag1290
ag1295
ag1301
ag4102
ag1306
ag1308
ag1309
ag3161
ag1321
ag1326
ag1327
ag210
ag1332
ag3235
ag1334
ag1336
ag1337
ag1343
ag1344
ag1914
ag1350
ag3355
ag1361
ag1364
ag1369
ag1384
ag1390
ag1399
ag467
ag1402
ag1403
ag1409
ag1411
ag3706
ag1504
ag3718
ag1420
ag4090
ag3743
ag1424
ag1428
ag1431
ag1434
ag1438
ag1440
ag1441
ag3899
ag1938
ag1451
ag1458
ag3968
ag1460
ag1461
ag1462
ag3989
ag1465
ag1471
ag4050
ag1478
ag1479
ag2805
ag2032
ag4094
ag1486
ag1488
ag1491
ag1778
ag4218
ag3546
ag1518
ag4316
ag1528
ag4386
ag1530
ag1535
ag1537
ag1538
ag1539
ag4527
ag1553
ag4559
ag4589
ag1566
ag1580
ag1718
ag1592
ag1596
ag1601
ag1607
ag1612
ag132
ag137
ag2456
ag1627
ag1393
ag1638
ag1639
ag4665
ag273
ag1646
ag278
ag2647
ag378
ag395
ag1669
ag422
ag1674
ag1675
ag1496
ag908
ag1683
ag1685
ag499
ag1696
ag1705
ag1707
ag1708
ag1709
ag1710
ag1711
ag1712
ag1713
ag635
ag1715
ag1716
ag53
ag1723
ag1726
ag766
ag1743
ag1748
ag1749
ag1755
ag867
ag1762
ag2602
ag1765
ag276
ag1766
ag456
ag1770
ag1758
ag996
ag1776
ag1780
ag1787
ag1788
ag1794
ag1805
ag1807
ag1814
ag1819
ag1826
ag1832
ag1841
ag1843
ag1845
ag1476
ag1848
ag1849
ag1107
ag1868
ag1869
ag1874
ag1875
ag1878
ag1879
ag1880
ag1883
ag1884
ag1742
ag1763
ag2417
ag1895
ag1901
ag2271
ag1907
ag1075
ag1912
ag1913
ag1915
ag1922
ag1925
ag1930
ag1935
ag1936
ag1937
ag26
ag1941
ag1943
ag1944
ag1945
ag1949
ag1953
ag2189
ag1965
ag1966
ag1976
ag1977
ag1984
ag1986
ag1987
ag1988
ag1990
ag1002
ag2449
ag1997
ag1999
ag2000
ag320
ag2005
ag2009
ag2010
ag2013
ag2014
ag2585
ag3238
ag2655
ag2026
ag1032
ag2671
ag2034
ag2035
ag2708
ag2731
ag2045
ag981
ag2056
ag2060
ag2063
ag2068
ag2076
ag2080
ag4764
ag2302
ag2089
ag2294
ag2092
ag1331
ag2096
ag2103
ag2108
ag3168
ag3172
ag2122
ag2124
ag3289
ag2127
ag2131
ag2135
ag2136
ag2141
ag2142
ag4117
ag2145
ag1957
ag2695
ag2167
ag2168
ag2171
ag3537
ag3545
ag1951
ag2181
ag3046
ag3688
ag2197
ag3724
ag3755
ag2207
ag1961
ag3559
ag3847
ag2219
ag2223
ag3967
ag613
ag4038
ag2259
ag2263
ag2265
ag4111
ag2273
ag535
ag2295
ag4349
ag2303
ag2539
ag2306
ag2309
ag2849
ag2315
ag4423
ag2324
ag2326
ag2332
ag2345
ag2353
ag2356
ag2357
ag2461
ag2373
ag2375
ag2377
ag2380
ag2381
ag9
ag4638
ag2386
ag1470
ag72
ag2400
ag2413
ag416
ag2429
ag289
ag301
ag1698
ag380
ag2949
ag2458
ag2463
ag2466
ag2467
ag2469
ag2471
ag2475
ag2478
ag2480
ag636
ag2495
ag2499
ag2514
ag2515
ag2826
ag1039
ag2542
ag2544
ag1016
ag2059
ag2557
ag2571
ag2575
ag2577
ag2579
ag1238
ag2583
ag2584
ag2589
ag2590
ag2592
ag1293
ag2599
ag3864
ag2613
ag2614
ag2615
ag2617
ag2620
ag2622
ag2625
ag2629
ag2630
ag1511
ag2641
ag2645
ag1614
ag2649
ag1654
ag3534
ag2658
ag2662
ag2666
ag2669
ag1825
ag1867
ag2686
ag2689
ag2690
ag2691
ag2692
ag2693
ag1920
ag2699
ag3620
ag2704
ag2709
ag2713
ag2016
ag2716
ag444
ag2054
ag2732
ag2161
ag2746
ag3029
ag2752
ag3892
ag2759
ag2761
ag2764
ag2765
ag2766
ag2767
ag2298
ag2773
ag2785
ag3505
ag4206
ag2444
ag2052
ag2483
ag2486
ag3657
ag2517
ag830
ag2814
ag2556
ag2816
ag2572
ag2820
ag2825
ag2832
ag2681
ag2841
ag2845
ag2847
ag2850
ag2860
ag2862
ag2865
ag2866
ag2867
ag2868
ag2873
ag2875
ag4103
ag2879
ag2883
ag2884
ag2885
ag2886
ag2889
ag2890
ag469
ag2894
ag3033
ag2901
ag2907
ag2908
ag4142
ag2927
ag2929
ag3451
ag3792
ag2939
ag2954
ag2957
ag2961
ag2962
ag2964
ag2979
ag3199
ag2988
ag2989
ag2997
ag2998
ag3000
ag2937
ag3005
ag3006
ag3013
ag3014
ag3017
ag3020
ag3024
ag3026
ag3028
ag3866
ag474
ag3044
ag3048
ag3051
ag2607
ag4036
ag3065
ag2948
ag3475
ag698
ag3075
ag3084
ag4124
ag4279
ag3107
ag4345
ag3111
ag3114
ag3115
ag3118
ag3121
ag3134
ag36
ag3137
ag3143
ag3144
ag3147
ag3149
ag3152
ag3157
ag2175
ag3165
ag3170
ag3180
ag968
ag4135
ag3197
ag3201
ag3203
ag66
ag3212
ag3216
ag1722
ag3222
ag3234
ag3237
ag3239
ag3243
ag3244
ag3246
ag340
ag3252
ag3257
ag3092
ag3184
ag3264
ag3272
ag3274
ag3277
ag3278
ag3284
ag3286
ag565
ag569
ag3293
ag3297
ag3305
ag3307
ag3308
ag686
ag697
ag3317
ag3062
ag3321
ag839
ag792
ag3337
ag3338
ag4085
ag3342
ag3116
ag3345
ag3348
ag2165
ag3352
ag3365
ag1052
ag3368
ag1070
ag3372
ag3376
ag1147
ag1159
ag855
ag3387
ag3389
ag3391
ag3394
ag1827
ag1094
ag4457
ag3404
ag3405
ag3408
ag3413
ag2818
ag3665
ag3422
ag3427
ag3759
ag3431
ag3433
ag3441
ag3442
ag1587
ag3043
ag2720
ag4075
ag3481
ag3378
ag3487
ag1836
ag3494
ag3498
ag4383
ag4454
ag3503
ag1995
ag1345
ag3524
ag4754
ag2061
ag3529
ag3530
ag2099
ag4118
ag3543
ag3549
ag2199
ag732
ag3562
ag3563
ag652
ag3588
ag3595
ag3605
ag3609
ag3616
ag3682
ag3619
ag3623
ag2601
ag3628
ag3635
ag3145
ag3639
ag3642
ag2717
ag2755
ag3795
ag1050
ag2839
ag3663
ag3668
ag758
ag3182
ag3678
ag3686
ag3066
ag4440
ag77
ag3696
ag3698
ag2027
ag3704
ag4752
ag3710
ag827
ag3712
ag3140
ag3716
ag3723
ag3727
ag2395
ag3730
ag3328
ag3744
ag3748
ag3749
ag3670
ag3760
ag3761
ag3450
ag3770
ag3777
ag3787
ag3793
ag3648
ag3802
ag3808
ag3825
ag2210
ag3814
ag3823
ag3832
ag3838
ag3843
ag3848
ag3857
ag3858
ag3871
ag2379
ag3875
ag4129
ag3879
ag3882
ag623
ag3889
ag3897
ag4301
ag4310
ag2343
ag1157
ag2435
ag187
ag3920
ag4430
ag3929
ag3931
ag3932
ag3937
ag4514
ag1543
ag4550
ag3945
ag4564
ag3950
ag3954
ag3958
ag3962
ag3969
ag3979
ag4174
ag2462
ag60
ag4002
ag4003
ag4004
ag4005
ag4007
ag3039
ag4017
ag4277
ag4027
ag539
ag1481
ag4039
ag2347
ag4046
ag4053
ag3924
ag4165
ag4084
ag4086
ag4091
ag700
ag780
ag3327
ag935
ag805
ag2184
ag4500
ag3459
ag4125
ag891
ag4134
ag4137
ag4139
ag4144
ag1022
ag3987
ag4159
ag1126
ag1509
ag4173
ag4179
ag4182
ag25
ag4188
ag4198
ag4203
ag1203
ag4214
ag348
ag1448
ag3769
ag4616
ag4248
ag4256
ag1631
ag4263
ag4264
ag4633
ag4276
ag4281
ag4283
ag4284
ag4290
ag2800
ag1851
ag4306
ag4308
ag1962
ag4319
ag2006
ag4324
ag4325
ag4051
ag4331
ag4334
ag4335
ag4336
ag4337
ag4338
ag4352
ag4358
ag4363
ag2235
ag4371
ag2296
ag4374
ag4378
ag2368
ag4388
ag4395
ag4399
ag2969
ag4405
ag4406
ag4411
ag4412
ag4417
ag4739
ag4424
ag1626
ag4436
ag4439
ag4448
ag4449
ag4451
ag3928
ag2791
ag3930
ag4473
ag3687
ag4478
ag4482
ag4483
ag4484
ag2982
ag3016
ag4497
ag4498
ag3050
ag790
ag4505
ag2217
ag3133
ag3138
ag4516
ag4519
ag1034
ag4524
ag4525
ag4526
ag3940
ag4683
ag4529
ag4530
ag4535
ag4537
ag3295
ag4544
ag836
ag4547
ag4553
ag3485
ag4569
ag4570
ag4573
ag4575
ag3622
ag4587
ag4588
ag4593
ag2723
ag4597
ag4604
ag607
ag1452
ag4771
ag4611
ag1103
ag3943
ag4630
ag4041
ag4077
ag4659
ag2831
ag1162
ag2973
ag20
ag3019
ag4238
ag4684
ag4261
ag4691
ag4695
ag4699
ag4702
ag4705
ag71
ag4709
ag4710
ag4712
ag4407
ag4110
ag4441
ag4726
ag4509
ag4742
ag4745
ag4750
ag4760
ag1164
ag1299
ag2
ag10
ag3332
ag3533
ag19
ag182
ag34
ag37
ag40
ag727
ag46
ag50
ag3908
ag3624
ag73
ag5
ag1276
ag3446
ag88
ag92
ag1492
ag712
ag743
ag116
ag786
ag1756
ag795
ag957
ag140
ag141
ag4010
ag146
ag3410
ag1045
ag151
ag160
ag162
ag3526
ag2376
ag3258
ag4269
ag1178
ag188
ag1227
ag39
ag101
ag3482
ag198
ag203
ag204
ag1304
ag608
ag1865
ag3227
ag229
ag1557
ag1457
ag232
ag233
ag235
ag1598
ag261
ag1701
ag1747
ag1800
ag282
ag288
ag1837
ag1861
ag310
ag2004
ag1012
ag326
ag3697
ag342
ag345
ag4661
ag353
ag356
ag361
ag2229
ag367
ag369
ag374
ag212
ag381
ag383
ag2555
ag400
ag3356
ag407
ag417
ag4014
ag430
ag437
ag670
ag1232
ag2702
ag443
ag2352
ag446
ag447
ag912
ag3961
ag464
ag4079
ag468
ag1353
ag480
ag2569
ag2928
ag497
ag506
ag508
ag3819
ag3202
ag2317
ag521
ag527
ag528
ag3357
ag3390
ag3466
ag4121
ag3541
ag880
ag575
ag3610
ag588
ag589
ag1456
ag3669
ag3767
ag3728
ag604
ag606
ag3776
ag610
ag3799
ag1517
ag3855
ag4390
ag624
ag629
ag632
ag634
ag637
ag640
ag2633
ag4043
ag302
ag669
ag674
ag676
ag680
ag4329
ag2812
ag2455
ag4267
ag3975
ag692
ag695
ag4347
ag704
ag705
ag2588
ag713
ag2414
ag720
ag4100
ag4555
ag4561
ag744
ag2510
ag746
ag756
ag4637
ag759
ag4667
ag773
ag4255
ag914
ag797
ag1706
ag799
ag800
ag2374
ag221
ag815
ag820
ag24
ag729
ag831
ag3964
ag352
ag837
ag2972
ag379
ag844
ag853
ag854
ag2794
ag485
ag501
ag870
ag874
ag568
ag595
ag4490
ag893
ag894
ag911
ag918
ag2829
ag89
ag926
ag4757
ag2667
ag936
ag946
ag969
ag4176
ag950
ag952
ag993
ag955
ag1001
ag961
ag971
ag1088
ag1095
ag4235
ag1200
ag1214
ag1261
ag1932
ag1003
ag896
ag1007
ag1890
ag1011
ag1014
ag1931
ag1019
ag1381
ag3888
ag1024
ag1025
ag1026
ag1027
ag1029
ag2154
ag4618
ag1054
ag1056
ag1057
ag1063
ag4741
ag1065
ag1694
ag2955
ag846
ag1078
ag3260
ag2945
ag1089
ag2833
ag452
ag3296
ag1102
ag1115
ag2036
ag2053
ag4311
ag1139
ag3798
ag1143
ag4602
ag1155
ag2160
ag1160
ag202
ag4195
ag2146
ag1744
ag1197
ag1198
ag2426
ag2441
ag2022
ag1208
ag1209
ag1213
ag3699
ag2546
ag3742
ag1225
ag1229
ag1233
ag1237
ag1242
ag1249
ag2182
ag1254
ag181
ag1263
ag1269
ag1271
ag1272
ag1278
ag363
ag4431
ag1289
ag3023
ag2434
ag1311
ag2206
ag3190
ag1328
ag3228
ag1678
ag3251
ag1341
ag1349
ag1298
ag2737
ag1372
ag3462
ag1375
ag4706
ag1378
ag3672
ag1387
ag840
ag1396
ag3606
ag1405
ag1410
ag3685
ag1423
ag1433
ag3835
ag1444
ag1446
ag4480
ag1453
ag1454
ag2278
ag1463
ag1487
ag4155
ag1840
ag1497
ag4298
ag1516
ag2898
ag1526
ag3361
ag1532
ag2950
ag1541
ag1552
ag1554
ag1555
ag1560
ag1564
ag1567
ag1570
ag2468
ag1582
ag1151
ag2628
ag4743
ag4758
ag2212
ag2485
ag2696
ag69
ag76
ag2518
ag1624
ag1338
ag214
ag1636
ag3681
ag246
ag1641
ag3735
ag174
ag2047
ag347
ag4303
ag406
ag917
ag1679
ag1688
ag1690
ag2697
ag546
ag1697
ag2203
ag2349
ag1703
ag1391
ag2524
ag1717
ag4605
ag1724
ag1727
ag4280
ag1735
ag2163
ag829
ag300
ag978
ag4615
ag976
ag2425
ag3384
ag1777
ag1781
ag1782
ag1055
ag3550
ag1097
ag1112
ag1791
ag1174
ag1183
ag1808
ag1812
ag1259
ag1816
ag741
ag1828
ag4394
ag1846
ag1857
ag2668
ag1872
ag1873
ag1882
ag1886
ag1887
ag3886
ag1894
ag1896
ag1795
ag1898
ag1810
ag3629
ag1910
ag1921
ag1929
ag4242
ag1947
ag2848
ag1950
ag1955
ag2231
ag1972
ag2861
ag1978
ag3895
ag1983
ag2407
ag3086
ag1989
ag1998
ag2725
ag2748
ag2031
ag2033
ag2341
ag2037
ag2039
ag2995
ag2042
ag3869
ag165
ag2050
ag2058
ag2837
ag2852
ag2863
ag2066
ag4057
ag2944
ag2078
ag2971
ag1093
ag1098
ag2088
ag2090
ag1086
ag2101
ag2106
ag2109
ag2110
ag2111
ag2116
ag3223
ag2121
ag3292
ag2128
ag903
ag2138
ag2139
ag2140
ag2153
ag2164
ag2512
ag2170
ag3553
ag3567
ag2187
ag4069
ag4617
ag858
ag420
ag3120
ag3804
ag3813
ag2211
ag2220
ag2222
ag3880
ag2227
ag1167
ag1850
ag3980
ag2243
ag4029
ag2266
ag4068
ag2527
ag2267
ag2268
ag2272
ag2275
ag2276
ag2474
ag3540
ag2396
ag306
ag2289
ag2639
ag4404
ag3573
ag4093
ag2293
ag4429
ag2320
ag2321
ag2322
ag2323
ag4447
ag2325
ag2328
ag2329
ag2334
ag2335
ag2340
ag3018
ag2342
ag4581
ag2350
ag2807
ag4685
ag2363
ag2365
ag4704
ag2370
ag375
ag6
ag2388
ag4278
ag3952
ag1010
ag90
ag845
ag2406
ag166
ag2411
ag3456
ag2418
ag4719
ag3566
ag1395
ag2424
ag2430
ag2431
ag297
ag2440
ag2445
ag2447
ag2043
ag2460
ag515
ag476
ag3684
ag502
ag2476
ag2477
ag2481
ag1863
ag2484
ag2487
ag2488
ag2107
ag2498
ag2506
ag2508
ag752
ag2513
ag4759
ag2521
ag2530
ag2537
ag2541
ag4141
ag2543
ag3597
ag1114
ag2566
ag1189
ag2576
ag2578
ag3397
ag2582
ag2587
ag2595
ag3513
ag3301
ag722
ag1903
ag2824
ag1427
ag2838
ag2618
ag4765
ag2624
ag2626
ag2634
ag1236
ag2638
ag1274
ag2643
ag2648
ag1635
ag2652
ag1689
ag2763
ag1443
ag2677
ag1853
ag1856
ag1917
ag1956
ag3167
ag2707
ag2710
ag2711
ag2017
ag2721
ag2093
ag2729
ag1751
ag2114
ag2736
ag4565
ag2760
ag2247
ag2770
ag3745
ag2781
ag2734
ag2412
ag990
ag2797
ag2801
ag2802
ag2008
ag2821
ag2942
ag3580
ag2835
ag2674
ag2844
ag3600
ag3030
ag2854
ag3454
ag2857
ag2859
ag1154
ag189
ag2372
ag2532
ag2926
ag2878
ag2882
ag343
ag2895
ag2896
ag161
ag2903
ag2904
ag3129
ag2915
ag1523
ag2940
ag2941
ag4435
ag3392
ag3395
ag3208
ag2953
ag2958
ag2215
ag3578
ag2987
ag2062
ag3803
ag3021
ag522
ag3851
ag3883
ag3267
ag3031
ag3922
ag3049
ag2018
ag3055
ag3056
ag3057
ag2179
ag3070
ag3071
ag4115
ag3076
ag3077
ag3209
ag3088
ag4414
ag3094
ag3096
ag987
ag1611
ag2919
ag3102
ag3106
ag4382
ag585
ag1466
ag3124
ag3125
ag1325
ag3131
ag4515
ag4546
ag2990
ag3104
ag3150
ag554
ag3153
ag3158
ag3160
ag3113
ag4643
ag3163
ag4662
ag3169
ag3067
ag4698
ag3175
ag3178
ag16
ag56
ag3206
ag262
ag3214
ag3224
ag3231
ag3233
ag205
ag333
ag1118
ag582
ag373
ag3265
ag4362
ag438
ag4533
ag3617
ag3275
ag512
ag4534
ag349
ag3285
ag4675
ag3290
ag3291
ag3300
ag3302
ag2769
ag317
ag3315
ag842
ag3341
ag943
ag985
ag3373
ag4293
ag1122
ag1644
ag2454
ag3393
ag2230
ag3396
ag1340
ag2213
ag3409
ag1347
ag3419
ag3424
ag3425
ag1490
ag4340
ag3939
ag3452
ag3817
ag3948
ag3461
ag998
ag3784
ag3469
ag3472
ag4106
ag296
ag1864
ag4567
ag617
ag52
ag3514
ag4160
ag1216
ag3525
ag3531
ag2084
ag2442
ag1822
ag702
ag3555
ag3311
ag2134
ag3561
ag3579
ag3581
ag4603
ag4272
ag3589
ag2410
ag2459
ag3607
ag3611
ag387
ag4660
ag3627
ag3548
ag3634
ag3867
ag4031
ag3109
ag4590
ag4220
ag2828
ag414
ag3664
ag3673
ag3675
ag1442
ag3680
ag1838
ag3074
ag1979
ag3692
ag1605
ag2183
ag3703
ag260
ag3119
ag3225
ag3725
ag3741
ag2738
ag3750
ag3388
ag3754
ag3412
ag3960
ag3758
ag3764
ag3766
ag3768
ag3512
ag22
ag3785
ag3786
ag942
ag3800
ag3801
ag3810
ag995
ag3815
ag4434
ag2916
ag4584
ag2877
ag3826
ag3831
ag3849
ag3836
ag3837
ag2749
ag3842
ag3916
ag3844
ag3845
ag553
ag3850
ag3853
ag3877
ag4162
ag4223
ag4258
ag4625
ag3860
ag290
ag365
ag3448
ag3919
ag3921
ag3923
ag1615
ag2911
ag719
ag3560
ag3942
ag3746
ag4635
ag4650
ag4634
ag3660
ag3974
ag3977
ag3978
ag3993
ag4006
ag4640
ag3159
ag4016
ag2706
ag2917
ag4025
ag4304
ag4408
ag944
ag4054
ag3667
ag473
ag4356
ag3174
ag4557
ag4076
ag4078
ag4080
ag657
ag2364
ag4101
ag791
ag1144
ag3004
ag385
ag4136
ag109
ag4146
ag4147
ag4359
ag2051
ag4168
ag4172
ag2966
ag4183
ag4190
ag4191
ag4193
ag4200
ag1313
ag1316
ag4211
ag4213
ag4216
ag1833
ag913
ag244
ag4232
ag1498
ag4244
ag4670
ag3089
ag1643
ag1062
ag4260
ag4262
ag4268
ag1035
ag4273
ag3887
ag2162
ag337
ag3426
ag1839
ag1436
ag4296
ag4300
ag1876
ag4600
ag4309
ag4104
ag4354
ag4330
ag4332
ag2094
ag4343
ag2935
ag2137
ag2985
ag1577
ag1394
ag4361
ag4592
ag4365
ag2258
ag4376
ag4381
ag1123
ag3429
ag2390
ag4391
ag2012
ag4397
ag2472
ag4402
ag4409
ag4416
ag4422
ag4123
ag4427
ag2627
ag4470
ag2024
ag4438
ag4442
ag4445
ag533
ag4450
ag4720
ag4465
ag4466
ag622
ag2893
ag4485
ag4486
ag4487
ag4488
ag740
ag4491
ag3007
ag4495
ag4499
ag1699
ag630
ag4728
ag3486
ag2327
ag889
ag4673
ag23
ag3445
ag3470
ag2922
ag3506
ag4568
ag4574
ag3565
ag4578
ag3652
ag4595
ag3719
ag4606
ag4609
ag4610
ag3841
ag4621
ag3951
ag481
ag4639
ag4641
ag4644
ag4646
ag2338
ag2981
ag4105
ag3809
ag4161
ag4668
ag4679
ag3911
ag2823
ag4286
ag4312
ag4714
ag3306
ag1971
ag4722
ag4724
ag4517
ag4732
ag4733
ag4734
ag4735
ag4738
ag963
ag4748
ag4623
ag1923
ag2316
a(dp4774
S'attendance'
p4775
I0
sS'enrollment'
p4776
I1
sS'dsp'
p4777
I2
sS'assignments'
p4778
I3
sS'internal'
p4779
I4
sS'miscl.'
p4780
I5
sS'conflicts'
p4781
I6
sS'regrades'
p4782
I7
s(dp4783
I0
g4775
sI1
g4776
sI2
g4777
sI3
g4778
sI4
g4779
sI5
g4780
sI6
g4781
sI7
g4782
stp4784
.